ARM GAS  /tmp/ccLDya5t.s 			page 1


   1              		.cpu cortex-m4
   2              		.eabi_attribute 27, 1
   3              		.eabi_attribute 28, 1
   4              		.eabi_attribute 20, 1
   5              		.eabi_attribute 21, 1
   6              		.eabi_attribute 23, 3
   7              		.eabi_attribute 24, 1
   8              		.eabi_attribute 25, 1
   9              		.eabi_attribute 26, 1
  10              		.eabi_attribute 30, 1
  11              		.eabi_attribute 34, 1
  12              		.eabi_attribute 18, 4
  13              		.file	"at32f4xx_exti.c"
  14              		.text
  15              	.Ltext0:
  16              		.cfi_sections	.debug_frame
  17              		.section	.text.EXTI_Reset,"ax",%progbits
  18              		.align	1
  19              		.global	EXTI_Reset
  20              		.arch armv7e-m
  21              		.syntax unified
  22              		.thumb
  23              		.thumb_func
  24              		.fpu fpv4-sp-d16
  26              	EXTI_Reset:
  27              	.LFB123:
  28              		.file 1 "./lib/src/at32f4xx_exti.c"
   1:./lib/src/at32f4xx_exti.c **** /**
   2:./lib/src/at32f4xx_exti.c ****   **************************************************************************
   3:./lib/src/at32f4xx_exti.c ****   * File   : at32f4xx_exti.c
   4:./lib/src/at32f4xx_exti.c ****   * Version: V1.2.4
   5:./lib/src/at32f4xx_exti.c ****   * Date   : 2020-08-26
   6:./lib/src/at32f4xx_exti.c ****   * Brief  : at32f4xx EXTI source file
   7:./lib/src/at32f4xx_exti.c ****   **************************************************************************
   8:./lib/src/at32f4xx_exti.c ****   */
   9:./lib/src/at32f4xx_exti.c **** 
  10:./lib/src/at32f4xx_exti.c **** 
  11:./lib/src/at32f4xx_exti.c **** /* Includes ------------------------------------------------------------------*/
  12:./lib/src/at32f4xx_exti.c **** #include "at32f4xx_exti.h"
  13:./lib/src/at32f4xx_exti.c **** 
  14:./lib/src/at32f4xx_exti.c **** /** @addtogroup at32f4xx_StdPeriph_Driver
  15:./lib/src/at32f4xx_exti.c ****   * @{
  16:./lib/src/at32f4xx_exti.c ****   */
  17:./lib/src/at32f4xx_exti.c **** 
  18:./lib/src/at32f4xx_exti.c **** /** @defgroup EXTI
  19:./lib/src/at32f4xx_exti.c ****   * @brief EXTI driver modules
  20:./lib/src/at32f4xx_exti.c ****   * @{
  21:./lib/src/at32f4xx_exti.c ****   */
  22:./lib/src/at32f4xx_exti.c **** 
  23:./lib/src/at32f4xx_exti.c **** /** @defgroup EXTI_Private_TypesDefinitions
  24:./lib/src/at32f4xx_exti.c ****   * @{
  25:./lib/src/at32f4xx_exti.c ****   */
  26:./lib/src/at32f4xx_exti.c **** 
  27:./lib/src/at32f4xx_exti.c **** /**
  28:./lib/src/at32f4xx_exti.c ****   * @}
  29:./lib/src/at32f4xx_exti.c ****   */
  30:./lib/src/at32f4xx_exti.c **** 
ARM GAS  /tmp/ccLDya5t.s 			page 2


  31:./lib/src/at32f4xx_exti.c **** /** @defgroup EXTI_Private_Defines
  32:./lib/src/at32f4xx_exti.c ****   * @{
  33:./lib/src/at32f4xx_exti.c ****   */
  34:./lib/src/at32f4xx_exti.c **** 
  35:./lib/src/at32f4xx_exti.c **** #define EXTI_LINENONE           ((uint32_t)0x00000)  /* No interrupt selected */
  36:./lib/src/at32f4xx_exti.c **** 
  37:./lib/src/at32f4xx_exti.c **** /**
  38:./lib/src/at32f4xx_exti.c ****   * @}
  39:./lib/src/at32f4xx_exti.c ****   */
  40:./lib/src/at32f4xx_exti.c **** 
  41:./lib/src/at32f4xx_exti.c **** /** @defgroup EXTI_Private_Macros
  42:./lib/src/at32f4xx_exti.c ****   * @{
  43:./lib/src/at32f4xx_exti.c ****   */
  44:./lib/src/at32f4xx_exti.c **** 
  45:./lib/src/at32f4xx_exti.c **** /**
  46:./lib/src/at32f4xx_exti.c ****   * @}
  47:./lib/src/at32f4xx_exti.c ****   */
  48:./lib/src/at32f4xx_exti.c **** 
  49:./lib/src/at32f4xx_exti.c **** /** @defgroup EXTI_Private_Variables
  50:./lib/src/at32f4xx_exti.c ****   * @{
  51:./lib/src/at32f4xx_exti.c ****   */
  52:./lib/src/at32f4xx_exti.c **** 
  53:./lib/src/at32f4xx_exti.c **** /**
  54:./lib/src/at32f4xx_exti.c ****   * @}
  55:./lib/src/at32f4xx_exti.c ****   */
  56:./lib/src/at32f4xx_exti.c **** 
  57:./lib/src/at32f4xx_exti.c **** /** @defgroup EXTI_Private_FunctionPrototypes
  58:./lib/src/at32f4xx_exti.c ****   * @{
  59:./lib/src/at32f4xx_exti.c ****   */
  60:./lib/src/at32f4xx_exti.c **** 
  61:./lib/src/at32f4xx_exti.c **** /**
  62:./lib/src/at32f4xx_exti.c ****   * @}
  63:./lib/src/at32f4xx_exti.c ****   */
  64:./lib/src/at32f4xx_exti.c **** 
  65:./lib/src/at32f4xx_exti.c **** /** @defgroup EXTI_Private_Functions
  66:./lib/src/at32f4xx_exti.c ****   * @{
  67:./lib/src/at32f4xx_exti.c ****   */
  68:./lib/src/at32f4xx_exti.c **** 
  69:./lib/src/at32f4xx_exti.c **** /**
  70:./lib/src/at32f4xx_exti.c ****   * @brief  Deinitializes the EXTI peripheral registers to their default reset values.
  71:./lib/src/at32f4xx_exti.c ****   * @param  None
  72:./lib/src/at32f4xx_exti.c ****   * @retval None
  73:./lib/src/at32f4xx_exti.c ****   */
  74:./lib/src/at32f4xx_exti.c **** void EXTI_Reset(void)
  75:./lib/src/at32f4xx_exti.c **** {
  29              		.loc 1 75 1 view -0
  30              		.cfi_startproc
  31              		@ args = 0, pretend = 0, frame = 0
  32              		@ frame_needed = 0, uses_anonymous_args = 0
  33              		@ link register save eliminated.
  76:./lib/src/at32f4xx_exti.c ****   EXTI->INTEN = 0x00000000;
  34              		.loc 1 76 3 view .LVU1
  35              		.loc 1 76 15 is_stmt 0 view .LVU2
  36 0000 044B     		ldr	r3, .L2
  37 0002 0022     		movs	r2, #0
  38 0004 1A60     		str	r2, [r3]
  77:./lib/src/at32f4xx_exti.c ****   EXTI->EVTEN = 0x00000000;
ARM GAS  /tmp/ccLDya5t.s 			page 3


  39              		.loc 1 77 3 is_stmt 1 view .LVU3
  40              		.loc 1 77 15 is_stmt 0 view .LVU4
  41 0006 5A60     		str	r2, [r3, #4]
  78:./lib/src/at32f4xx_exti.c ****   EXTI->RTRSEL = 0x00000000;
  42              		.loc 1 78 3 is_stmt 1 view .LVU5
  43              		.loc 1 78 16 is_stmt 0 view .LVU6
  44 0008 9A60     		str	r2, [r3, #8]
  79:./lib/src/at32f4xx_exti.c ****   EXTI->FTRSEL = 0x00000000;
  45              		.loc 1 79 3 is_stmt 1 view .LVU7
  46              		.loc 1 79 16 is_stmt 0 view .LVU8
  47 000a DA60     		str	r2, [r3, #12]
  80:./lib/src/at32f4xx_exti.c ****   EXTI->PND = 0x007FFFFF;
  48              		.loc 1 80 3 is_stmt 1 view .LVU9
  49              		.loc 1 80 13 is_stmt 0 view .LVU10
  50 000c 024A     		ldr	r2, .L2+4
  51 000e 5A61     		str	r2, [r3, #20]
  81:./lib/src/at32f4xx_exti.c **** }
  52              		.loc 1 81 1 view .LVU11
  53 0010 7047     		bx	lr
  54              	.L3:
  55 0012 00BF     		.align	2
  56              	.L2:
  57 0014 00040140 		.word	1073808384
  58 0018 FFFF7F00 		.word	8388607
  59              		.cfi_endproc
  60              	.LFE123:
  62              		.section	.text.EXTI_Init,"ax",%progbits
  63              		.align	1
  64              		.global	EXTI_Init
  65              		.syntax unified
  66              		.thumb
  67              		.thumb_func
  68              		.fpu fpv4-sp-d16
  70              	EXTI_Init:
  71              	.LVL0:
  72              	.LFB124:
  82:./lib/src/at32f4xx_exti.c **** 
  83:./lib/src/at32f4xx_exti.c **** /**
  84:./lib/src/at32f4xx_exti.c ****   * @brief  Initializes the EXTI peripheral according to the specified
  85:./lib/src/at32f4xx_exti.c ****   *         parameters in the EXTI_InitStruct.
  86:./lib/src/at32f4xx_exti.c ****   * @param  EXTI_InitStruct: pointer to a EXTI_InitType structure
  87:./lib/src/at32f4xx_exti.c ****   *         that contains the configuration information for the EXTI peripheral.
  88:./lib/src/at32f4xx_exti.c ****   * @retval None
  89:./lib/src/at32f4xx_exti.c ****   */
  90:./lib/src/at32f4xx_exti.c **** void EXTI_Init(EXTI_InitType* EXTI_InitStruct)
  91:./lib/src/at32f4xx_exti.c **** {
  73              		.loc 1 91 1 is_stmt 1 view -0
  74              		.cfi_startproc
  75              		@ args = 0, pretend = 0, frame = 0
  76              		@ frame_needed = 0, uses_anonymous_args = 0
  77              		@ link register save eliminated.
  92:./lib/src/at32f4xx_exti.c ****   uint32_t tmp = 0;
  78              		.loc 1 92 3 view .LVU13
  93:./lib/src/at32f4xx_exti.c **** 
  94:./lib/src/at32f4xx_exti.c ****   /* Check the parameters */
  95:./lib/src/at32f4xx_exti.c ****   assert_param(IS_EXTI_MODE(EXTI_InitStruct->EXTI_Mode));
  79              		.loc 1 95 3 view .LVU14
ARM GAS  /tmp/ccLDya5t.s 			page 4


  96:./lib/src/at32f4xx_exti.c ****   assert_param(IS_EXTI_TRIGGER(EXTI_InitStruct->EXTI_Trigger));
  80              		.loc 1 96 3 view .LVU15
  97:./lib/src/at32f4xx_exti.c ****   assert_param(IS_EXTI_LINE(EXTI_InitStruct->EXTI_Line));
  81              		.loc 1 97 3 view .LVU16
  98:./lib/src/at32f4xx_exti.c ****   assert_param(IS_FUNCTIONAL_STATE(EXTI_InitStruct->EXTI_LineEnable));
  82              		.loc 1 98 3 view .LVU17
  99:./lib/src/at32f4xx_exti.c **** 
 100:./lib/src/at32f4xx_exti.c ****   tmp = (uint32_t)EXTI_BASE;
  83              		.loc 1 100 3 view .LVU18
 101:./lib/src/at32f4xx_exti.c **** 
 102:./lib/src/at32f4xx_exti.c ****   if (EXTI_InitStruct->EXTI_LineEnable != DISABLE)
  84              		.loc 1 102 3 view .LVU19
  85              		.loc 1 102 22 is_stmt 0 view .LVU20
  86 0000 8379     		ldrb	r3, [r0, #6]	@ zero_extendqisi2
  87              		.loc 1 102 6 view .LVU21
  88 0002 002B     		cmp	r3, #0
  89 0004 36D0     		beq	.L5
  91:./lib/src/at32f4xx_exti.c ****   uint32_t tmp = 0;
  90              		.loc 1 91 1 view .LVU22
  91 0006 10B4     		push	{r4}
  92              	.LCFI0:
  93              		.cfi_def_cfa_offset 4
  94              		.cfi_offset 4, -4
 103:./lib/src/at32f4xx_exti.c ****   {
 104:./lib/src/at32f4xx_exti.c ****     /* Clear EXTI line configuration */
 105:./lib/src/at32f4xx_exti.c ****     EXTI->INTEN &= ~EXTI_InitStruct->EXTI_Line;
  95              		.loc 1 105 5 is_stmt 1 view .LVU23
  96              		.loc 1 105 17 is_stmt 0 view .LVU24
  97 0008 204B     		ldr	r3, .L13
  98 000a 1A68     		ldr	r2, [r3]
  99              		.loc 1 105 36 view .LVU25
 100 000c 0168     		ldr	r1, [r0]
 101              		.loc 1 105 17 view .LVU26
 102 000e 22EA0102 		bic	r2, r2, r1
 103 0012 1A60     		str	r2, [r3]
 106:./lib/src/at32f4xx_exti.c ****     EXTI->EVTEN &= ~EXTI_InitStruct->EXTI_Line;
 104              		.loc 1 106 5 is_stmt 1 view .LVU27
 105              		.loc 1 106 17 is_stmt 0 view .LVU28
 106 0014 5A68     		ldr	r2, [r3, #4]
 107              		.loc 1 106 36 view .LVU29
 108 0016 0168     		ldr	r1, [r0]
 109              		.loc 1 106 17 view .LVU30
 110 0018 22EA0102 		bic	r2, r2, r1
 111 001c 5A60     		str	r2, [r3, #4]
 107:./lib/src/at32f4xx_exti.c **** 
 108:./lib/src/at32f4xx_exti.c ****     tmp += EXTI_InitStruct->EXTI_Mode;
 112              		.loc 1 108 5 is_stmt 1 view .LVU31
 113              		.loc 1 108 27 is_stmt 0 view .LVU32
 114 001e 0279     		ldrb	r2, [r0, #4]	@ zero_extendqisi2
 115              		.loc 1 108 9 view .LVU33
 116 0020 02F18042 		add	r2, r2, #1073741824
 117 0024 02F58232 		add	r2, r2, #66560
 118              	.LVL1:
 109:./lib/src/at32f4xx_exti.c **** 
 110:./lib/src/at32f4xx_exti.c ****     *(__IO uint32_t *) tmp |= EXTI_InitStruct->EXTI_Line;
 119              		.loc 1 110 5 is_stmt 1 view .LVU34
 120              		.loc 1 110 28 is_stmt 0 view .LVU35
ARM GAS  /tmp/ccLDya5t.s 			page 5


 121 0028 1168     		ldr	r1, [r2]
 122 002a 0468     		ldr	r4, [r0]
 123 002c 2143     		orrs	r1, r1, r4
 124 002e 1160     		str	r1, [r2]
 111:./lib/src/at32f4xx_exti.c **** 
 112:./lib/src/at32f4xx_exti.c ****     /* Clear Rising Falling edge configuration */
 113:./lib/src/at32f4xx_exti.c ****     EXTI->RTRSEL &= ~EXTI_InitStruct->EXTI_Line;
 125              		.loc 1 113 5 is_stmt 1 view .LVU36
 126              		.loc 1 113 18 is_stmt 0 view .LVU37
 127 0030 9A68     		ldr	r2, [r3, #8]
 128              	.LVL2:
 129              		.loc 1 113 37 view .LVU38
 130 0032 0168     		ldr	r1, [r0]
 131              		.loc 1 113 18 view .LVU39
 132 0034 22EA0102 		bic	r2, r2, r1
 133 0038 9A60     		str	r2, [r3, #8]
 114:./lib/src/at32f4xx_exti.c ****     EXTI->FTRSEL &= ~EXTI_InitStruct->EXTI_Line;
 134              		.loc 1 114 5 is_stmt 1 view .LVU40
 135              		.loc 1 114 18 is_stmt 0 view .LVU41
 136 003a DA68     		ldr	r2, [r3, #12]
 137              		.loc 1 114 37 view .LVU42
 138 003c 0168     		ldr	r1, [r0]
 139              		.loc 1 114 18 view .LVU43
 140 003e 22EA0102 		bic	r2, r2, r1
 141 0042 DA60     		str	r2, [r3, #12]
 115:./lib/src/at32f4xx_exti.c **** 
 116:./lib/src/at32f4xx_exti.c ****     /* Select the trigger for the selected external interrupts */
 117:./lib/src/at32f4xx_exti.c ****     if (EXTI_InitStruct->EXTI_Trigger == EXTI_Trigger_Rising_Falling)
 142              		.loc 1 117 5 is_stmt 1 view .LVU44
 143              		.loc 1 117 24 is_stmt 0 view .LVU45
 144 0044 4379     		ldrb	r3, [r0, #5]	@ zero_extendqisi2
 145              		.loc 1 117 8 view .LVU46
 146 0046 102B     		cmp	r3, #16
 147 0048 0AD0     		beq	.L12
 118:./lib/src/at32f4xx_exti.c ****     {
 119:./lib/src/at32f4xx_exti.c ****       /* Rising Falling edge */
 120:./lib/src/at32f4xx_exti.c ****       EXTI->RTRSEL |= EXTI_InitStruct->EXTI_Line;
 121:./lib/src/at32f4xx_exti.c ****       EXTI->FTRSEL |= EXTI_InitStruct->EXTI_Line;
 122:./lib/src/at32f4xx_exti.c ****     }
 123:./lib/src/at32f4xx_exti.c ****     else
 124:./lib/src/at32f4xx_exti.c ****     {
 125:./lib/src/at32f4xx_exti.c ****       tmp = (uint32_t)EXTI_BASE;
 148              		.loc 1 125 7 is_stmt 1 view .LVU47
 149              	.LVL3:
 126:./lib/src/at32f4xx_exti.c ****       tmp += EXTI_InitStruct->EXTI_Trigger;
 150              		.loc 1 126 7 view .LVU48
 151              		.loc 1 126 11 is_stmt 0 view .LVU49
 152 004a 03F18043 		add	r3, r3, #1073741824
 153 004e 03F58233 		add	r3, r3, #66560
 154              	.LVL4:
 127:./lib/src/at32f4xx_exti.c **** 
 128:./lib/src/at32f4xx_exti.c ****       *(__IO uint32_t *) tmp |= EXTI_InitStruct->EXTI_Line;
 155              		.loc 1 128 7 is_stmt 1 view .LVU50
 156              		.loc 1 128 30 is_stmt 0 view .LVU51
 157 0052 1A68     		ldr	r2, [r3]
 158              		.loc 1 128 48 view .LVU52
 159 0054 0168     		ldr	r1, [r0]
ARM GAS  /tmp/ccLDya5t.s 			page 6


 160              		.loc 1 128 30 view .LVU53
 161 0056 0A43     		orrs	r2, r2, r1
 162 0058 1A60     		str	r2, [r3]
 163              	.LVL5:
 164              	.L4:
 129:./lib/src/at32f4xx_exti.c ****     }
 130:./lib/src/at32f4xx_exti.c ****   }
 131:./lib/src/at32f4xx_exti.c ****   else
 132:./lib/src/at32f4xx_exti.c ****   {
 133:./lib/src/at32f4xx_exti.c ****     tmp += EXTI_InitStruct->EXTI_Mode;
 134:./lib/src/at32f4xx_exti.c **** 
 135:./lib/src/at32f4xx_exti.c ****     /* Disable the selected external lines */
 136:./lib/src/at32f4xx_exti.c ****     *(__IO uint32_t *) tmp &= ~EXTI_InitStruct->EXTI_Line;
 137:./lib/src/at32f4xx_exti.c ****   }
 138:./lib/src/at32f4xx_exti.c **** }
 165              		.loc 1 138 1 view .LVU54
 166 005a 5DF8044B 		ldr	r4, [sp], #4
 167              	.LCFI1:
 168              		.cfi_remember_state
 169              		.cfi_restore 4
 170              		.cfi_def_cfa_offset 0
 171 005e 7047     		bx	lr
 172              	.L12:
 173              	.LCFI2:
 174              		.cfi_restore_state
 120:./lib/src/at32f4xx_exti.c ****       EXTI->FTRSEL |= EXTI_InitStruct->EXTI_Line;
 175              		.loc 1 120 7 is_stmt 1 view .LVU55
 120:./lib/src/at32f4xx_exti.c ****       EXTI->FTRSEL |= EXTI_InitStruct->EXTI_Line;
 176              		.loc 1 120 20 is_stmt 0 view .LVU56
 177 0060 0A4B     		ldr	r3, .L13
 178 0062 9A68     		ldr	r2, [r3, #8]
 120:./lib/src/at32f4xx_exti.c ****       EXTI->FTRSEL |= EXTI_InitStruct->EXTI_Line;
 179              		.loc 1 120 38 view .LVU57
 180 0064 0168     		ldr	r1, [r0]
 120:./lib/src/at32f4xx_exti.c ****       EXTI->FTRSEL |= EXTI_InitStruct->EXTI_Line;
 181              		.loc 1 120 20 view .LVU58
 182 0066 0A43     		orrs	r2, r2, r1
 183 0068 9A60     		str	r2, [r3, #8]
 121:./lib/src/at32f4xx_exti.c ****     }
 184              		.loc 1 121 7 is_stmt 1 view .LVU59
 121:./lib/src/at32f4xx_exti.c ****     }
 185              		.loc 1 121 20 is_stmt 0 view .LVU60
 186 006a DA68     		ldr	r2, [r3, #12]
 121:./lib/src/at32f4xx_exti.c ****     }
 187              		.loc 1 121 38 view .LVU61
 188 006c 0168     		ldr	r1, [r0]
 121:./lib/src/at32f4xx_exti.c ****     }
 189              		.loc 1 121 20 view .LVU62
 190 006e 0A43     		orrs	r2, r2, r1
 191 0070 DA60     		str	r2, [r3, #12]
 192 0072 F2E7     		b	.L4
 193              	.LVL6:
 194              	.L5:
 195              	.LCFI3:
 196              		.cfi_def_cfa_offset 0
 197              		.cfi_restore 4
 133:./lib/src/at32f4xx_exti.c **** 
ARM GAS  /tmp/ccLDya5t.s 			page 7


 198              		.loc 1 133 5 is_stmt 1 view .LVU63
 133:./lib/src/at32f4xx_exti.c **** 
 199              		.loc 1 133 27 is_stmt 0 view .LVU64
 200 0074 0379     		ldrb	r3, [r0, #4]	@ zero_extendqisi2
 133:./lib/src/at32f4xx_exti.c **** 
 201              		.loc 1 133 9 view .LVU65
 202 0076 03F18043 		add	r3, r3, #1073741824
 203 007a 03F58233 		add	r3, r3, #66560
 204              	.LVL7:
 136:./lib/src/at32f4xx_exti.c ****   }
 205              		.loc 1 136 5 is_stmt 1 view .LVU66
 136:./lib/src/at32f4xx_exti.c ****   }
 206              		.loc 1 136 28 is_stmt 0 view .LVU67
 207 007e 1A68     		ldr	r2, [r3]
 136:./lib/src/at32f4xx_exti.c ****   }
 208              		.loc 1 136 47 view .LVU68
 209 0080 0168     		ldr	r1, [r0]
 136:./lib/src/at32f4xx_exti.c ****   }
 210              		.loc 1 136 28 view .LVU69
 211 0082 22EA0102 		bic	r2, r2, r1
 212 0086 1A60     		str	r2, [r3]
 213 0088 7047     		bx	lr
 214              	.L14:
 215 008a 00BF     		.align	2
 216              	.L13:
 217 008c 00040140 		.word	1073808384
 218              		.cfi_endproc
 219              	.LFE124:
 221              		.section	.text.EXTI_StructInit,"ax",%progbits
 222              		.align	1
 223              		.global	EXTI_StructInit
 224              		.syntax unified
 225              		.thumb
 226              		.thumb_func
 227              		.fpu fpv4-sp-d16
 229              	EXTI_StructInit:
 230              	.LVL8:
 231              	.LFB125:
 139:./lib/src/at32f4xx_exti.c **** 
 140:./lib/src/at32f4xx_exti.c **** /**
 141:./lib/src/at32f4xx_exti.c ****   * @brief  Fills each EXTI_InitStruct member with its reset value.
 142:./lib/src/at32f4xx_exti.c ****   * @param  EXTI_InitStruct: pointer to a EXTI_InitType structure which will
 143:./lib/src/at32f4xx_exti.c ****   *         be initialized.
 144:./lib/src/at32f4xx_exti.c ****   * @retval None
 145:./lib/src/at32f4xx_exti.c ****   */
 146:./lib/src/at32f4xx_exti.c **** void EXTI_StructInit(EXTI_InitType* EXTI_InitStruct)
 147:./lib/src/at32f4xx_exti.c **** {
 232              		.loc 1 147 1 is_stmt 1 view -0
 233              		.cfi_startproc
 234              		@ args = 0, pretend = 0, frame = 0
 235              		@ frame_needed = 0, uses_anonymous_args = 0
 236              		@ link register save eliminated.
 148:./lib/src/at32f4xx_exti.c ****   EXTI_InitStruct->EXTI_Line = EXTI_LINENONE;
 237              		.loc 1 148 3 view .LVU71
 238              		.loc 1 148 30 is_stmt 0 view .LVU72
 239 0000 0023     		movs	r3, #0
 240 0002 0360     		str	r3, [r0]
ARM GAS  /tmp/ccLDya5t.s 			page 8


 149:./lib/src/at32f4xx_exti.c ****   EXTI_InitStruct->EXTI_Mode = EXTI_Mode_Interrupt;
 241              		.loc 1 149 3 is_stmt 1 view .LVU73
 242              		.loc 1 149 30 is_stmt 0 view .LVU74
 243 0004 0371     		strb	r3, [r0, #4]
 150:./lib/src/at32f4xx_exti.c ****   EXTI_InitStruct->EXTI_Trigger = EXTI_Trigger_Falling;
 244              		.loc 1 150 3 is_stmt 1 view .LVU75
 245              		.loc 1 150 33 is_stmt 0 view .LVU76
 246 0006 0C22     		movs	r2, #12
 247 0008 4271     		strb	r2, [r0, #5]
 151:./lib/src/at32f4xx_exti.c ****   EXTI_InitStruct->EXTI_LineEnable = DISABLE;
 248              		.loc 1 151 3 is_stmt 1 view .LVU77
 249              		.loc 1 151 36 is_stmt 0 view .LVU78
 250 000a 8371     		strb	r3, [r0, #6]
 152:./lib/src/at32f4xx_exti.c **** }
 251              		.loc 1 152 1 view .LVU79
 252 000c 7047     		bx	lr
 253              		.cfi_endproc
 254              	.LFE125:
 256              		.section	.text.EXTI_GenerateSWInt,"ax",%progbits
 257              		.align	1
 258              		.global	EXTI_GenerateSWInt
 259              		.syntax unified
 260              		.thumb
 261              		.thumb_func
 262              		.fpu fpv4-sp-d16
 264              	EXTI_GenerateSWInt:
 265              	.LVL9:
 266              	.LFB126:
 153:./lib/src/at32f4xx_exti.c **** 
 154:./lib/src/at32f4xx_exti.c **** /**
 155:./lib/src/at32f4xx_exti.c ****   * @brief  Generates a Software interrupt.
 156:./lib/src/at32f4xx_exti.c ****   * @param  EXTI_Line: specifies the EXTI lines to be enabled or disabled.
 157:./lib/src/at32f4xx_exti.c ****   *   This parameter can be any combination of EXTI_Linex where x can be (0..19).
 158:./lib/src/at32f4xx_exti.c ****   * @retval None
 159:./lib/src/at32f4xx_exti.c ****   */
 160:./lib/src/at32f4xx_exti.c **** void EXTI_GenerateSWInt(uint32_t EXTI_Line)
 161:./lib/src/at32f4xx_exti.c **** {
 267              		.loc 1 161 1 is_stmt 1 view -0
 268              		.cfi_startproc
 269              		@ args = 0, pretend = 0, frame = 0
 270              		@ frame_needed = 0, uses_anonymous_args = 0
 271              		@ link register save eliminated.
 162:./lib/src/at32f4xx_exti.c ****   /* Check the parameters */
 163:./lib/src/at32f4xx_exti.c ****   assert_param(IS_EXTI_LINE(EXTI_Line));
 272              		.loc 1 163 3 view .LVU81
 164:./lib/src/at32f4xx_exti.c **** 
 165:./lib/src/at32f4xx_exti.c ****   EXTI->SWIE |= EXTI_Line;
 273              		.loc 1 165 3 view .LVU82
 274              		.loc 1 165 14 is_stmt 0 view .LVU83
 275 0000 024A     		ldr	r2, .L17
 276 0002 1369     		ldr	r3, [r2, #16]
 277 0004 0343     		orrs	r3, r3, r0
 278 0006 1361     		str	r3, [r2, #16]
 166:./lib/src/at32f4xx_exti.c **** }
 279              		.loc 1 166 1 view .LVU84
 280 0008 7047     		bx	lr
 281              	.L18:
ARM GAS  /tmp/ccLDya5t.s 			page 9


 282 000a 00BF     		.align	2
 283              	.L17:
 284 000c 00040140 		.word	1073808384
 285              		.cfi_endproc
 286              	.LFE126:
 288              		.section	.text.EXTI_GetFlagStatus,"ax",%progbits
 289              		.align	1
 290              		.global	EXTI_GetFlagStatus
 291              		.syntax unified
 292              		.thumb
 293              		.thumb_func
 294              		.fpu fpv4-sp-d16
 296              	EXTI_GetFlagStatus:
 297              	.LVL10:
 298              	.LFB127:
 167:./lib/src/at32f4xx_exti.c **** 
 168:./lib/src/at32f4xx_exti.c **** /**
 169:./lib/src/at32f4xx_exti.c ****   * @brief  Checks whether the specified EXTI line flag is set or not.
 170:./lib/src/at32f4xx_exti.c ****   * @param  EXTI_Line: specifies the EXTI line flag to check.
 171:./lib/src/at32f4xx_exti.c ****   *   This parameter can be:
 172:./lib/src/at32f4xx_exti.c ****   *     @arg EXTI_Linex: External interrupt line x where x(0..19)
 173:./lib/src/at32f4xx_exti.c ****   * @retval The new state of EXTI_Line (SET or RESET).
 174:./lib/src/at32f4xx_exti.c ****   */
 175:./lib/src/at32f4xx_exti.c **** FlagStatus EXTI_GetFlagStatus(uint32_t EXTI_Line)
 176:./lib/src/at32f4xx_exti.c **** {
 299              		.loc 1 176 1 is_stmt 1 view -0
 300              		.cfi_startproc
 301              		@ args = 0, pretend = 0, frame = 0
 302              		@ frame_needed = 0, uses_anonymous_args = 0
 303              		@ link register save eliminated.
 177:./lib/src/at32f4xx_exti.c ****   FlagStatus bitstatus = RESET;
 304              		.loc 1 177 3 view .LVU86
 178:./lib/src/at32f4xx_exti.c ****   /* Check the parameters */
 179:./lib/src/at32f4xx_exti.c ****   assert_param(IS_GET_EXTI_LINE(EXTI_Line));
 305              		.loc 1 179 3 view .LVU87
 180:./lib/src/at32f4xx_exti.c **** 
 181:./lib/src/at32f4xx_exti.c ****   if ((EXTI->PND & EXTI_Line) != (uint32_t)RESET)
 306              		.loc 1 181 3 view .LVU88
 307              		.loc 1 181 12 is_stmt 0 view .LVU89
 308 0000 034B     		ldr	r3, .L22
 309 0002 5B69     		ldr	r3, [r3, #20]
 310              		.loc 1 181 6 view .LVU90
 311 0004 0342     		tst	r3, r0
 312 0006 01D0     		beq	.L21
 182:./lib/src/at32f4xx_exti.c ****   {
 183:./lib/src/at32f4xx_exti.c ****     bitstatus = SET;
 313              		.loc 1 183 15 view .LVU91
 314 0008 0120     		movs	r0, #1
 315              	.LVL11:
 316              		.loc 1 183 15 view .LVU92
 317 000a 7047     		bx	lr
 318              	.LVL12:
 319              	.L21:
 184:./lib/src/at32f4xx_exti.c ****   }
 185:./lib/src/at32f4xx_exti.c ****   else
 186:./lib/src/at32f4xx_exti.c ****   {
 187:./lib/src/at32f4xx_exti.c ****     bitstatus = RESET;
ARM GAS  /tmp/ccLDya5t.s 			page 10


 320              		.loc 1 187 15 view .LVU93
 321 000c 0020     		movs	r0, #0
 322              	.LVL13:
 188:./lib/src/at32f4xx_exti.c ****   }
 189:./lib/src/at32f4xx_exti.c **** 
 190:./lib/src/at32f4xx_exti.c ****   return bitstatus;
 323              		.loc 1 190 3 is_stmt 1 view .LVU94
 191:./lib/src/at32f4xx_exti.c **** }
 324              		.loc 1 191 1 is_stmt 0 view .LVU95
 325 000e 7047     		bx	lr
 326              	.L23:
 327              		.align	2
 328              	.L22:
 329 0010 00040140 		.word	1073808384
 330              		.cfi_endproc
 331              	.LFE127:
 333              		.section	.text.EXTI_ClearFlag,"ax",%progbits
 334              		.align	1
 335              		.global	EXTI_ClearFlag
 336              		.syntax unified
 337              		.thumb
 338              		.thumb_func
 339              		.fpu fpv4-sp-d16
 341              	EXTI_ClearFlag:
 342              	.LVL14:
 343              	.LFB128:
 192:./lib/src/at32f4xx_exti.c **** 
 193:./lib/src/at32f4xx_exti.c **** /**
 194:./lib/src/at32f4xx_exti.c ****   * @brief  Clears the EXTI's line pending flags.
 195:./lib/src/at32f4xx_exti.c ****   * @param  EXTI_Line: specifies the EXTI lines flags to clear.
 196:./lib/src/at32f4xx_exti.c ****   *   This parameter can be any combination of EXTI_Linex where x can be (0..19).
 197:./lib/src/at32f4xx_exti.c ****   * @retval None
 198:./lib/src/at32f4xx_exti.c ****   */
 199:./lib/src/at32f4xx_exti.c **** void EXTI_ClearFlag(uint32_t EXTI_Line)
 200:./lib/src/at32f4xx_exti.c **** {
 344              		.loc 1 200 1 is_stmt 1 view -0
 345              		.cfi_startproc
 346              		@ args = 0, pretend = 0, frame = 0
 347              		@ frame_needed = 0, uses_anonymous_args = 0
 348              		@ link register save eliminated.
 201:./lib/src/at32f4xx_exti.c ****   /* Check the parameters */
 202:./lib/src/at32f4xx_exti.c ****   assert_param(IS_EXTI_LINE(EXTI_Line));
 349              		.loc 1 202 3 view .LVU97
 203:./lib/src/at32f4xx_exti.c **** 
 204:./lib/src/at32f4xx_exti.c ****   EXTI->PND = EXTI_Line;
 350              		.loc 1 204 3 view .LVU98
 351              		.loc 1 204 13 is_stmt 0 view .LVU99
 352 0000 014B     		ldr	r3, .L25
 353 0002 5861     		str	r0, [r3, #20]
 205:./lib/src/at32f4xx_exti.c **** }
 354              		.loc 1 205 1 view .LVU100
 355 0004 7047     		bx	lr
 356              	.L26:
 357 0006 00BF     		.align	2
 358              	.L25:
 359 0008 00040140 		.word	1073808384
 360              		.cfi_endproc
ARM GAS  /tmp/ccLDya5t.s 			page 11


 361              	.LFE128:
 363              		.section	.text.EXTI_GetIntStatus,"ax",%progbits
 364              		.align	1
 365              		.global	EXTI_GetIntStatus
 366              		.syntax unified
 367              		.thumb
 368              		.thumb_func
 369              		.fpu fpv4-sp-d16
 371              	EXTI_GetIntStatus:
 372              	.LVL15:
 373              	.LFB129:
 206:./lib/src/at32f4xx_exti.c **** 
 207:./lib/src/at32f4xx_exti.c **** /**
 208:./lib/src/at32f4xx_exti.c ****   * @brief  Checks whether the specified EXTI line is asserted or not.
 209:./lib/src/at32f4xx_exti.c ****   * @param  EXTI_Line: specifies the EXTI line to check.
 210:./lib/src/at32f4xx_exti.c ****   *   This parameter can be:
 211:./lib/src/at32f4xx_exti.c ****   *     @arg EXTI_Linex: External interrupt line x where x(0..19)
 212:./lib/src/at32f4xx_exti.c ****   * @retval The new state of EXTI_Line (SET or RESET).
 213:./lib/src/at32f4xx_exti.c ****   */
 214:./lib/src/at32f4xx_exti.c **** ITStatus EXTI_GetIntStatus(uint32_t EXTI_Line)
 215:./lib/src/at32f4xx_exti.c **** {
 374              		.loc 1 215 1 is_stmt 1 view -0
 375              		.cfi_startproc
 376              		@ args = 0, pretend = 0, frame = 0
 377              		@ frame_needed = 0, uses_anonymous_args = 0
 378              		@ link register save eliminated.
 216:./lib/src/at32f4xx_exti.c ****   ITStatus bitstatus = RESET;
 379              		.loc 1 216 3 view .LVU102
 217:./lib/src/at32f4xx_exti.c ****   uint32_t enablestatus = 0;
 380              		.loc 1 217 3 view .LVU103
 218:./lib/src/at32f4xx_exti.c ****   /* Check the parameters */
 219:./lib/src/at32f4xx_exti.c ****   assert_param(IS_GET_EXTI_LINE(EXTI_Line));
 381              		.loc 1 219 3 view .LVU104
 220:./lib/src/at32f4xx_exti.c **** 
 221:./lib/src/at32f4xx_exti.c ****   enablestatus =  EXTI->INTEN & EXTI_Line;
 382              		.loc 1 221 3 view .LVU105
 383              		.loc 1 221 23 is_stmt 0 view .LVU106
 384 0000 064A     		ldr	r2, .L31
 385 0002 1368     		ldr	r3, [r2]
 386              		.loc 1 221 16 view .LVU107
 387 0004 0340     		ands	r3, r3, r0
 388              	.LVL16:
 222:./lib/src/at32f4xx_exti.c **** 
 223:./lib/src/at32f4xx_exti.c ****   if (((EXTI->PND & EXTI_Line) != (uint32_t)RESET) && (enablestatus != (uint32_t)RESET))
 389              		.loc 1 223 3 is_stmt 1 view .LVU108
 390              		.loc 1 223 13 is_stmt 0 view .LVU109
 391 0006 5269     		ldr	r2, [r2, #20]
 392              		.loc 1 223 6 view .LVU110
 393 0008 0242     		tst	r2, r0
 394 000a 02D0     		beq	.L29
 395              		.loc 1 223 52 discriminator 1 view .LVU111
 396 000c 1BB9     		cbnz	r3, .L30
 224:./lib/src/at32f4xx_exti.c ****   {
 225:./lib/src/at32f4xx_exti.c ****     bitstatus = SET;
 226:./lib/src/at32f4xx_exti.c ****   }
 227:./lib/src/at32f4xx_exti.c ****   else
 228:./lib/src/at32f4xx_exti.c ****   {
ARM GAS  /tmp/ccLDya5t.s 			page 12


 229:./lib/src/at32f4xx_exti.c ****     bitstatus = RESET;
 397              		.loc 1 229 15 view .LVU112
 398 000e 0020     		movs	r0, #0
 399              	.LVL17:
 400              		.loc 1 229 15 view .LVU113
 401 0010 7047     		bx	lr
 402              	.LVL18:
 403              	.L29:
 404              		.loc 1 229 15 view .LVU114
 405 0012 0020     		movs	r0, #0
 406              	.LVL19:
 407              		.loc 1 229 15 view .LVU115
 408 0014 7047     		bx	lr
 409              	.LVL20:
 410              	.L30:
 225:./lib/src/at32f4xx_exti.c ****   }
 411              		.loc 1 225 15 view .LVU116
 412 0016 0120     		movs	r0, #1
 413              	.LVL21:
 230:./lib/src/at32f4xx_exti.c ****   }
 231:./lib/src/at32f4xx_exti.c **** 
 232:./lib/src/at32f4xx_exti.c ****   return bitstatus;
 414              		.loc 1 232 3 is_stmt 1 view .LVU117
 233:./lib/src/at32f4xx_exti.c **** }
 415              		.loc 1 233 1 is_stmt 0 view .LVU118
 416 0018 7047     		bx	lr
 417              	.L32:
 418 001a 00BF     		.align	2
 419              	.L31:
 420 001c 00040140 		.word	1073808384
 421              		.cfi_endproc
 422              	.LFE129:
 424              		.section	.text.EXTI_ClearIntPendingBit,"ax",%progbits
 425              		.align	1
 426              		.global	EXTI_ClearIntPendingBit
 427              		.syntax unified
 428              		.thumb
 429              		.thumb_func
 430              		.fpu fpv4-sp-d16
 432              	EXTI_ClearIntPendingBit:
 433              	.LVL22:
 434              	.LFB130:
 234:./lib/src/at32f4xx_exti.c **** 
 235:./lib/src/at32f4xx_exti.c **** /**
 236:./lib/src/at32f4xx_exti.c ****   * @brief  Clears the EXTI's line pending bits.
 237:./lib/src/at32f4xx_exti.c ****   * @param  EXTI_Line: specifies the EXTI lines to clear.
 238:./lib/src/at32f4xx_exti.c ****   *   This parameter can be any combination of EXTI_Linex where x can be (0..19).
 239:./lib/src/at32f4xx_exti.c ****   * @retval None
 240:./lib/src/at32f4xx_exti.c ****   */
 241:./lib/src/at32f4xx_exti.c **** void EXTI_ClearIntPendingBit(uint32_t EXTI_Line)
 242:./lib/src/at32f4xx_exti.c **** {
 435              		.loc 1 242 1 is_stmt 1 view -0
 436              		.cfi_startproc
 437              		@ args = 0, pretend = 0, frame = 0
 438              		@ frame_needed = 0, uses_anonymous_args = 0
 439              		@ link register save eliminated.
 243:./lib/src/at32f4xx_exti.c ****   /* Check the parameters */
ARM GAS  /tmp/ccLDya5t.s 			page 13


 244:./lib/src/at32f4xx_exti.c ****   assert_param(IS_EXTI_LINE(EXTI_Line));
 440              		.loc 1 244 3 view .LVU120
 245:./lib/src/at32f4xx_exti.c **** 
 246:./lib/src/at32f4xx_exti.c ****   EXTI->PND = EXTI_Line;
 441              		.loc 1 246 3 view .LVU121
 442              		.loc 1 246 13 is_stmt 0 view .LVU122
 443 0000 014B     		ldr	r3, .L34
 444 0002 5861     		str	r0, [r3, #20]
 247:./lib/src/at32f4xx_exti.c **** }
 445              		.loc 1 247 1 view .LVU123
 446 0004 7047     		bx	lr
 447              	.L35:
 448 0006 00BF     		.align	2
 449              	.L34:
 450 0008 00040140 		.word	1073808384
 451              		.cfi_endproc
 452              	.LFE130:
 454              		.text
 455              	.Letext0:
 456              		.file 2 "/usr/lib/gcc/arm-none-eabi/10.3.1/include/stdint.h"
 457              		.file 3 "CMSIS/at32f4xx.h"
 458              		.file 4 "lib/inc/at32f4xx_exti.h"
ARM GAS  /tmp/ccLDya5t.s 			page 14

