ARM GAS  /tmp/cciYW7Ru.s 			page 1


   1              		.cpu cortex-m4
   2              		.eabi_attribute 27, 1
   3              		.eabi_attribute 28, 1
   4              		.eabi_attribute 20, 1
   5              		.eabi_attribute 21, 1
   6              		.eabi_attribute 23, 3
   7              		.eabi_attribute 24, 1
   8              		.eabi_attribute 25, 1
   9              		.eabi_attribute 26, 1
  10              		.eabi_attribute 30, 1
  11              		.eabi_attribute 34, 1
  12              		.eabi_attribute 18, 4
  13              		.file	"at32f4xx_it.c"
  14              		.text
  15              	.Ltext0:
  16              		.cfi_sections	.debug_frame
  17              		.section	.text.NMI_Handler,"ax",%progbits
  18              		.align	1
  19              		.global	NMI_Handler
  20              		.arch armv7e-m
  21              		.syntax unified
  22              		.thumb
  23              		.thumb_func
  24              		.fpu fpv4-sp-d16
  26              	NMI_Handler:
  27              	.LFB123:
  28              		.file 1 "./app/at32f4xx_it.c"
   1:./app/at32f4xx_it.c **** /**
   2:./app/at32f4xx_it.c ****   ******************************************************************************
   3:./app/at32f4xx_it.c ****   * File   : USART/Interrupt/at32f4xx_it.c
   4:./app/at32f4xx_it.c ****   * Version: V1.2.4
   5:./app/at32f4xx_it.c ****   * Date   : 2020-08-26
   6:./app/at32f4xx_it.c ****   * Brief  : Main Interrupt Service Routines.
   7:./app/at32f4xx_it.c ****   *          This file provides template for all exceptions handler and peripherals
   8:./app/at32f4xx_it.c ****   *          interrupt service routine.
   9:./app/at32f4xx_it.c ****   ******************************************************************************
  10:./app/at32f4xx_it.c ****   */ 
  11:./app/at32f4xx_it.c **** 
  12:./app/at32f4xx_it.c **** /* Includes ------------------------------------------------------------------*/
  13:./app/at32f4xx_it.c **** #include "at32f4xx_it.h"
  14:./app/at32f4xx_it.c **** 
  15:./app/at32f4xx_it.c **** 
  16:./app/at32f4xx_it.c **** #include "usart_config.h"
  17:./app/at32f4xx_it.c **** #include "dma_config.h"
  18:./app/at32f4xx_it.c **** 
  19:./app/at32f4xx_it.c **** 
  20:./app/at32f4xx_it.c **** 
  21:./app/at32f4xx_it.c **** 
  22:./app/at32f4xx_it.c **** /** @addtogroup AT32F421_StdPeriph_Examples
  23:./app/at32f4xx_it.c ****   * @{
  24:./app/at32f4xx_it.c ****   */
  25:./app/at32f4xx_it.c **** 
  26:./app/at32f4xx_it.c **** 
  27:./app/at32f4xx_it.c **** /** @addtogroup USART_Interrupt
  28:./app/at32f4xx_it.c ****   * @{
  29:./app/at32f4xx_it.c ****   */ 
  30:./app/at32f4xx_it.c **** 
ARM GAS  /tmp/cciYW7Ru.s 			page 2


  31:./app/at32f4xx_it.c **** /* Private typedef -----------------------------------------------------------*/
  32:./app/at32f4xx_it.c **** /* Private define ------------------------------------------------------------*/
  33:./app/at32f4xx_it.c **** /* Private macro -------------------------------------------------------------*/
  34:./app/at32f4xx_it.c **** /* Private variables ---------------------------------------------------------*/
  35:./app/at32f4xx_it.c **** 
  36:./app/at32f4xx_it.c **** 
  37:./app/at32f4xx_it.c **** /* Private function prototypes -----------------------------------------------*/
  38:./app/at32f4xx_it.c **** /* Private functions ---------------------------------------------------------*/
  39:./app/at32f4xx_it.c **** 
  40:./app/at32f4xx_it.c **** /**
  41:./app/at32f4xx_it.c ****   * @brief  This function handles NMI exception.
  42:./app/at32f4xx_it.c ****   * @param  None
  43:./app/at32f4xx_it.c ****   * @retval None
  44:./app/at32f4xx_it.c ****   */
  45:./app/at32f4xx_it.c **** void NMI_Handler(void)
  46:./app/at32f4xx_it.c **** {
  29              		.loc 1 46 1 view -0
  30              		.cfi_startproc
  31              		@ args = 0, pretend = 0, frame = 0
  32              		@ frame_needed = 0, uses_anonymous_args = 0
  33              		@ link register save eliminated.
  47:./app/at32f4xx_it.c **** }
  34              		.loc 1 47 1 view .LVU1
  35 0000 7047     		bx	lr
  36              		.cfi_endproc
  37              	.LFE123:
  39              		.section	.text.HardFault_Handler,"ax",%progbits
  40              		.align	1
  41              		.global	HardFault_Handler
  42              		.syntax unified
  43              		.thumb
  44              		.thumb_func
  45              		.fpu fpv4-sp-d16
  47              	HardFault_Handler:
  48              	.LFB124:
  48:./app/at32f4xx_it.c **** 
  49:./app/at32f4xx_it.c **** /**
  50:./app/at32f4xx_it.c ****   * @brief  This function handles Hard Fault exception.
  51:./app/at32f4xx_it.c ****   * @param  None
  52:./app/at32f4xx_it.c ****   * @retval None
  53:./app/at32f4xx_it.c ****   */
  54:./app/at32f4xx_it.c **** void HardFault_Handler(void)
  55:./app/at32f4xx_it.c **** {
  49              		.loc 1 55 1 view -0
  50              		.cfi_startproc
  51              		@ Volatile: function does not return.
  52              		@ args = 0, pretend = 0, frame = 0
  53              		@ frame_needed = 0, uses_anonymous_args = 0
  54              		@ link register save eliminated.
  55              	.L3:
  56:./app/at32f4xx_it.c ****   /* Go to infinite loop when Hard Fault exception occurs */
  57:./app/at32f4xx_it.c ****   while (1)
  56              		.loc 1 57 3 discriminator 1 view .LVU3
  58:./app/at32f4xx_it.c ****   {
  59:./app/at32f4xx_it.c ****   }
  57              		.loc 1 59 3 discriminator 1 view .LVU4
  57:./app/at32f4xx_it.c ****   {
ARM GAS  /tmp/cciYW7Ru.s 			page 3


  58              		.loc 1 57 9 discriminator 1 view .LVU5
  59 0000 FEE7     		b	.L3
  60              		.cfi_endproc
  61              	.LFE124:
  63              		.section	.text.MemManage_Handler,"ax",%progbits
  64              		.align	1
  65              		.global	MemManage_Handler
  66              		.syntax unified
  67              		.thumb
  68              		.thumb_func
  69              		.fpu fpv4-sp-d16
  71              	MemManage_Handler:
  72              	.LFB125:
  60:./app/at32f4xx_it.c **** }
  61:./app/at32f4xx_it.c **** 
  62:./app/at32f4xx_it.c **** /**
  63:./app/at32f4xx_it.c ****   * @brief  This function handles Memory Manage exception.
  64:./app/at32f4xx_it.c ****   * @param  None
  65:./app/at32f4xx_it.c ****   * @retval None
  66:./app/at32f4xx_it.c ****   */
  67:./app/at32f4xx_it.c **** void MemManage_Handler(void)
  68:./app/at32f4xx_it.c **** {
  73              		.loc 1 68 1 view -0
  74              		.cfi_startproc
  75              		@ Volatile: function does not return.
  76              		@ args = 0, pretend = 0, frame = 0
  77              		@ frame_needed = 0, uses_anonymous_args = 0
  78              		@ link register save eliminated.
  79              	.L5:
  69:./app/at32f4xx_it.c ****   /* Go to infinite loop when Memory Manage exception occurs */
  70:./app/at32f4xx_it.c ****   while (1)
  80              		.loc 1 70 3 discriminator 1 view .LVU7
  71:./app/at32f4xx_it.c ****   {
  72:./app/at32f4xx_it.c ****   }
  81              		.loc 1 72 3 discriminator 1 view .LVU8
  70:./app/at32f4xx_it.c ****   {
  82              		.loc 1 70 9 discriminator 1 view .LVU9
  83 0000 FEE7     		b	.L5
  84              		.cfi_endproc
  85              	.LFE125:
  87              		.section	.text.BusFault_Handler,"ax",%progbits
  88              		.align	1
  89              		.global	BusFault_Handler
  90              		.syntax unified
  91              		.thumb
  92              		.thumb_func
  93              		.fpu fpv4-sp-d16
  95              	BusFault_Handler:
  96              	.LFB126:
  73:./app/at32f4xx_it.c **** }
  74:./app/at32f4xx_it.c **** 
  75:./app/at32f4xx_it.c **** /**
  76:./app/at32f4xx_it.c ****   * @brief  This function handles Bus Fault exception.
  77:./app/at32f4xx_it.c ****   * @param  None
  78:./app/at32f4xx_it.c ****   * @retval None
  79:./app/at32f4xx_it.c ****   */
  80:./app/at32f4xx_it.c **** void BusFault_Handler(void)
ARM GAS  /tmp/cciYW7Ru.s 			page 4


  81:./app/at32f4xx_it.c **** {
  97              		.loc 1 81 1 view -0
  98              		.cfi_startproc
  99              		@ Volatile: function does not return.
 100              		@ args = 0, pretend = 0, frame = 0
 101              		@ frame_needed = 0, uses_anonymous_args = 0
 102              		@ link register save eliminated.
 103              	.L7:
  82:./app/at32f4xx_it.c ****   /* Go to infinite loop when Bus Fault exception occurs */
  83:./app/at32f4xx_it.c ****   while (1)
 104              		.loc 1 83 3 discriminator 1 view .LVU11
  84:./app/at32f4xx_it.c ****   {
  85:./app/at32f4xx_it.c ****   }
 105              		.loc 1 85 3 discriminator 1 view .LVU12
  83:./app/at32f4xx_it.c ****   {
 106              		.loc 1 83 9 discriminator 1 view .LVU13
 107 0000 FEE7     		b	.L7
 108              		.cfi_endproc
 109              	.LFE126:
 111              		.section	.text.UsageFault_Handler,"ax",%progbits
 112              		.align	1
 113              		.global	UsageFault_Handler
 114              		.syntax unified
 115              		.thumb
 116              		.thumb_func
 117              		.fpu fpv4-sp-d16
 119              	UsageFault_Handler:
 120              	.LFB127:
  86:./app/at32f4xx_it.c **** }
  87:./app/at32f4xx_it.c **** 
  88:./app/at32f4xx_it.c **** /**
  89:./app/at32f4xx_it.c ****   * @brief  This function handles Usage Fault exception.
  90:./app/at32f4xx_it.c ****   * @param  None
  91:./app/at32f4xx_it.c ****   * @retval None
  92:./app/at32f4xx_it.c ****   */
  93:./app/at32f4xx_it.c **** void UsageFault_Handler(void)
  94:./app/at32f4xx_it.c **** {
 121              		.loc 1 94 1 view -0
 122              		.cfi_startproc
 123              		@ Volatile: function does not return.
 124              		@ args = 0, pretend = 0, frame = 0
 125              		@ frame_needed = 0, uses_anonymous_args = 0
 126              		@ link register save eliminated.
 127              	.L9:
  95:./app/at32f4xx_it.c ****   /* Go to infinite loop when Usage Fault exception occurs */
  96:./app/at32f4xx_it.c ****   while (1)
 128              		.loc 1 96 3 discriminator 1 view .LVU15
  97:./app/at32f4xx_it.c ****   {
  98:./app/at32f4xx_it.c ****   }
 129              		.loc 1 98 3 discriminator 1 view .LVU16
  96:./app/at32f4xx_it.c ****   {
 130              		.loc 1 96 9 discriminator 1 view .LVU17
 131 0000 FEE7     		b	.L9
 132              		.cfi_endproc
 133              	.LFE127:
 135              		.section	.text.DebugMon_Handler,"ax",%progbits
 136              		.align	1
ARM GAS  /tmp/cciYW7Ru.s 			page 5


 137              		.global	DebugMon_Handler
 138              		.syntax unified
 139              		.thumb
 140              		.thumb_func
 141              		.fpu fpv4-sp-d16
 143              	DebugMon_Handler:
 144              	.LFB128:
  99:./app/at32f4xx_it.c **** }
 100:./app/at32f4xx_it.c **** 
 101:./app/at32f4xx_it.c **** /**
 102:./app/at32f4xx_it.c ****   * @brief  This function handles SVCall exception.
 103:./app/at32f4xx_it.c ****   * @param  None
 104:./app/at32f4xx_it.c ****   * @retval None
 105:./app/at32f4xx_it.c ****   */
 106:./app/at32f4xx_it.c **** /*void SVC_Handler(void)
 107:./app/at32f4xx_it.c **** {
 108:./app/at32f4xx_it.c **** 	 vPortSVCHandler();
 109:./app/at32f4xx_it.c **** }*/
 110:./app/at32f4xx_it.c **** 
 111:./app/at32f4xx_it.c **** /**
 112:./app/at32f4xx_it.c ****   * @brief  This function handles Debug Monitor exception.
 113:./app/at32f4xx_it.c ****   * @param  None
 114:./app/at32f4xx_it.c ****   * @retval None
 115:./app/at32f4xx_it.c ****   */
 116:./app/at32f4xx_it.c **** void DebugMon_Handler(void)
 117:./app/at32f4xx_it.c **** {
 145              		.loc 1 117 1 view -0
 146              		.cfi_startproc
 147              		@ args = 0, pretend = 0, frame = 0
 148              		@ frame_needed = 0, uses_anonymous_args = 0
 149              		@ link register save eliminated.
 118:./app/at32f4xx_it.c **** }
 150              		.loc 1 118 1 view .LVU19
 151 0000 7047     		bx	lr
 152              		.cfi_endproc
 153              	.LFE128:
 155              		.section	.text.USART1_IRQHandler,"ax",%progbits
 156              		.align	1
 157              		.global	USART1_IRQHandler
 158              		.syntax unified
 159              		.thumb
 160              		.thumb_func
 161              		.fpu fpv4-sp-d16
 163              	USART1_IRQHandler:
 164              	.LFB129:
 119:./app/at32f4xx_it.c **** 
 120:./app/at32f4xx_it.c **** /**
 121:./app/at32f4xx_it.c ****   * @brief  This function handles PendSV_Handler exception.
 122:./app/at32f4xx_it.c ****   * @param  None
 123:./app/at32f4xx_it.c ****   * @retval None
 124:./app/at32f4xx_it.c ****   */
 125:./app/at32f4xx_it.c **** /*void PendSV_Handler(void)
 126:./app/at32f4xx_it.c **** {
 127:./app/at32f4xx_it.c **** 	xPortPendSVHandler();
 128:./app/at32f4xx_it.c **** }*/
 129:./app/at32f4xx_it.c **** 
 130:./app/at32f4xx_it.c **** /**
ARM GAS  /tmp/cciYW7Ru.s 			page 6


 131:./app/at32f4xx_it.c ****   * @brief  This function handles SysTick Handler.
 132:./app/at32f4xx_it.c ****   * @param  None
 133:./app/at32f4xx_it.c ****   * @retval None
 134:./app/at32f4xx_it.c ****   */
 135:./app/at32f4xx_it.c **** /*void SysTick_Handler(void)
 136:./app/at32f4xx_it.c **** {
 137:./app/at32f4xx_it.c **** 	xPortSysTickHandler();
 138:./app/at32f4xx_it.c **** }*/
 139:./app/at32f4xx_it.c **** 
 140:./app/at32f4xx_it.c **** /**
 141:./app/at32f4xx_it.c ****   * @brief  This function handles USART1 global interrupt request.
 142:./app/at32f4xx_it.c ****   * @param  None
 143:./app/at32f4xx_it.c ****   * @retval None
 144:./app/at32f4xx_it.c ****   */
 145:./app/at32f4xx_it.c **** void USART1_IRQHandler(void)
 146:./app/at32f4xx_it.c **** {
 165              		.loc 1 146 1 view -0
 166              		.cfi_startproc
 167              		@ args = 0, pretend = 0, frame = 0
 168              		@ frame_needed = 0, uses_anonymous_args = 0
 169 0000 08B5     		push	{r3, lr}
 170              	.LCFI0:
 171              		.cfi_def_cfa_offset 8
 172              		.cfi_offset 3, -8
 173              		.cfi_offset 14, -4
 147:./app/at32f4xx_it.c ****   if(USART_GetITStatus(USART1, USART_INT_RDNE) != RESET)
 174              		.loc 1 147 3 view .LVU21
 175              		.loc 1 147 6 is_stmt 0 view .LVU22
 176 0002 40F22551 		movw	r1, #1317
 177 0006 0248     		ldr	r0, .L13
 178 0008 FFF7FEFF 		bl	USART_GetITStatus
 179              	.LVL0:
 148:./app/at32f4xx_it.c ****   {
 149:./app/at32f4xx_it.c ****     //uart_send_byte(USART1, USART_ReceiveData(USART1));
 150:./app/at32f4xx_it.c ****   }
 180              		.loc 1 150 3 is_stmt 1 view .LVU23
 151:./app/at32f4xx_it.c **** }
 181              		.loc 1 151 1 is_stmt 0 view .LVU24
 182 000c 08BD     		pop	{r3, pc}
 183              	.L14:
 184 000e 00BF     		.align	2
 185              	.L13:
 186 0010 00380140 		.word	1073821696
 187              		.cfi_endproc
 188              	.LFE129:
 190              		.section	.text.USART2_IRQHandler,"ax",%progbits
 191              		.align	1
 192              		.global	USART2_IRQHandler
 193              		.syntax unified
 194              		.thumb
 195              		.thumb_func
 196              		.fpu fpv4-sp-d16
 198              	USART2_IRQHandler:
 199              	.LFB130:
 152:./app/at32f4xx_it.c **** 
 153:./app/at32f4xx_it.c **** /**
 154:./app/at32f4xx_it.c ****   * @brief  This function handles USART2 global interrupt request.
ARM GAS  /tmp/cciYW7Ru.s 			page 7


 155:./app/at32f4xx_it.c ****   * @param  None
 156:./app/at32f4xx_it.c ****   * @retval None
 157:./app/at32f4xx_it.c ****   */
 158:./app/at32f4xx_it.c **** void USART2_IRQHandler(void)
 159:./app/at32f4xx_it.c **** {
 200              		.loc 1 159 1 is_stmt 1 view -0
 201              		.cfi_startproc
 202              		@ args = 0, pretend = 0, frame = 0
 203              		@ frame_needed = 0, uses_anonymous_args = 0
 204 0000 08B5     		push	{r3, lr}
 205              	.LCFI1:
 206              		.cfi_def_cfa_offset 8
 207              		.cfi_offset 3, -8
 208              		.cfi_offset 14, -4
 160:./app/at32f4xx_it.c **** 	if(USART_GetITStatus(USART2, USART_INT_RDNE) == SET)
 209              		.loc 1 160 2 view .LVU26
 210              		.loc 1 160 5 is_stmt 0 view .LVU27
 211 0002 40F22551 		movw	r1, #1317
 212 0006 0B48     		ldr	r0, .L21
 213 0008 FFF7FEFF 		bl	USART_GetITStatus
 214              	.LVL1:
 215              		.loc 1 160 4 view .LVU28
 216 000c 0128     		cmp	r0, #1
 217 000e 07D0     		beq	.L19
 218              	.L16:
 161:./app/at32f4xx_it.c **** 	{
 162:./app/at32f4xx_it.c **** 		USART_ClearITPendingBit(USART2, USART_INT_RDNE);
 163:./app/at32f4xx_it.c **** 		//sbus_updata_data();
 164:./app/at32f4xx_it.c **** 		//ibus_read_original_data();
 165:./app/at32f4xx_it.c **** 		
 166:./app/at32f4xx_it.c **** 	}
 167:./app/at32f4xx_it.c **** 
 168:./app/at32f4xx_it.c **** 	if(USART_GetITStatus(USART2, USART_INT_IDLEF) == SET)
 219              		.loc 1 168 2 is_stmt 1 view .LVU29
 220              		.loc 1 168 5 is_stmt 0 view .LVU30
 221 0010 40F22441 		movw	r1, #1060
 222 0014 0748     		ldr	r0, .L21
 223 0016 FFF7FEFF 		bl	USART_GetITStatus
 224              	.LVL2:
 225              		.loc 1 168 4 view .LVU31
 226 001a 0128     		cmp	r0, #1
 227 001c 06D0     		beq	.L20
 228              	.L15:
 169:./app/at32f4xx_it.c **** 	{
 170:./app/at32f4xx_it.c **** 	
 171:./app/at32f4xx_it.c **** 		USART_ReceiveData(USART2);
 172:./app/at32f4xx_it.c **** 
 173:./app/at32f4xx_it.c **** 		//USART_ClearFlag();
 174:./app/at32f4xx_it.c **** 		//USART_ClearITPendingBit(USART2, USART_INT_RDNE);
 175:./app/at32f4xx_it.c **** 	}
 176:./app/at32f4xx_it.c **** }
 229              		.loc 1 176 1 view .LVU32
 230 001e 08BD     		pop	{r3, pc}
 231              	.L19:
 162:./app/at32f4xx_it.c **** 		//sbus_updata_data();
 232              		.loc 1 162 3 is_stmt 1 view .LVU33
 233 0020 40F22551 		movw	r1, #1317
ARM GAS  /tmp/cciYW7Ru.s 			page 8


 234 0024 0348     		ldr	r0, .L21
 235 0026 FFF7FEFF 		bl	USART_ClearITPendingBit
 236              	.LVL3:
 237 002a F1E7     		b	.L16
 238              	.L20:
 171:./app/at32f4xx_it.c **** 
 239              		.loc 1 171 3 view .LVU34
 240 002c 0148     		ldr	r0, .L21
 241 002e FFF7FEFF 		bl	USART_ReceiveData
 242              	.LVL4:
 243              		.loc 1 176 1 is_stmt 0 view .LVU35
 244 0032 F4E7     		b	.L15
 245              	.L22:
 246              		.align	2
 247              	.L21:
 248 0034 00440040 		.word	1073759232
 249              		.cfi_endproc
 250              	.LFE130:
 252              		.section	.text.TMR6_GLOBAL_IRQHandler,"ax",%progbits
 253              		.align	1
 254              		.global	TMR6_GLOBAL_IRQHandler
 255              		.syntax unified
 256              		.thumb
 257              		.thumb_func
 258              		.fpu fpv4-sp-d16
 260              	TMR6_GLOBAL_IRQHandler:
 261              	.LFB131:
 177:./app/at32f4xx_it.c **** 
 178:./app/at32f4xx_it.c **** int led_flag = 0;
 179:./app/at32f4xx_it.c **** int motor_count = 0;
 180:./app/at32f4xx_it.c **** void TMR6_GLOBAL_IRQHandler(void)
 181:./app/at32f4xx_it.c **** {
 262              		.loc 1 181 1 is_stmt 1 view -0
 263              		.cfi_startproc
 264              		@ args = 0, pretend = 0, frame = 0
 265              		@ frame_needed = 0, uses_anonymous_args = 0
 266 0000 08B5     		push	{r3, lr}
 267              	.LCFI2:
 268              		.cfi_def_cfa_offset 8
 269              		.cfi_offset 3, -8
 270              		.cfi_offset 14, -4
 182:./app/at32f4xx_it.c ****   if(TMR_GetINTStatus(TMR6, TMR_INT_Overflow) == SET)
 271              		.loc 1 182 3 view .LVU37
 272              		.loc 1 182 6 is_stmt 0 view .LVU38
 273 0002 0121     		movs	r1, #1
 274 0004 0548     		ldr	r0, .L27
 275 0006 FFF7FEFF 		bl	TMR_GetINTStatus
 276              	.LVL5:
 277              		.loc 1 182 5 view .LVU39
 278 000a 0128     		cmp	r0, #1
 279 000c 00D0     		beq	.L26
 280              	.L23:
 183:./app/at32f4xx_it.c ****   {
 184:./app/at32f4xx_it.c ****     TMR_ClearITPendingBit(TMR6, TMR_INT_Overflow);
 185:./app/at32f4xx_it.c ****       
 186:./app/at32f4xx_it.c ****     //tim_500ms_task();
 187:./app/at32f4xx_it.c **** 
ARM GAS  /tmp/cciYW7Ru.s 			page 9


 188:./app/at32f4xx_it.c ****     
 189:./app/at32f4xx_it.c **** 	
 190:./app/at32f4xx_it.c ****   }
 191:./app/at32f4xx_it.c **** 
 192:./app/at32f4xx_it.c **** }
 281              		.loc 1 192 1 view .LVU40
 282 000e 08BD     		pop	{r3, pc}
 283              	.L26:
 184:./app/at32f4xx_it.c ****       
 284              		.loc 1 184 5 is_stmt 1 view .LVU41
 285 0010 0121     		movs	r1, #1
 286 0012 0248     		ldr	r0, .L27
 287 0014 FFF7FEFF 		bl	TMR_ClearITPendingBit
 288              	.LVL6:
 289              		.loc 1 192 1 is_stmt 0 view .LVU42
 290 0018 F9E7     		b	.L23
 291              	.L28:
 292 001a 00BF     		.align	2
 293              	.L27:
 294 001c 00100040 		.word	1073745920
 295              		.cfi_endproc
 296              	.LFE131:
 298              		.section	.text.TMR3_GLOBAL_IRQHandler,"ax",%progbits
 299              		.align	1
 300              		.global	TMR3_GLOBAL_IRQHandler
 301              		.syntax unified
 302              		.thumb
 303              		.thumb_func
 304              		.fpu fpv4-sp-d16
 306              	TMR3_GLOBAL_IRQHandler:
 307              	.LFB132:
 193:./app/at32f4xx_it.c **** 
 194:./app/at32f4xx_it.c **** void TMR3_GLOBAL_IRQHandler(void)
 195:./app/at32f4xx_it.c **** { 
 308              		.loc 1 195 1 is_stmt 1 view -0
 309              		.cfi_startproc
 310              		@ args = 0, pretend = 0, frame = 0
 311              		@ frame_needed = 0, uses_anonymous_args = 0
 312 0000 08B5     		push	{r3, lr}
 313              	.LCFI3:
 314              		.cfi_def_cfa_offset 8
 315              		.cfi_offset 3, -8
 316              		.cfi_offset 14, -4
 196:./app/at32f4xx_it.c ****   if(TMR_GetINTStatus(TMR3, TMR_INT_CC2) == SET) 
 317              		.loc 1 196 3 view .LVU44
 318              		.loc 1 196 6 is_stmt 0 view .LVU45
 319 0002 0421     		movs	r1, #4
 320 0004 0548     		ldr	r0, .L33
 321 0006 FFF7FEFF 		bl	TMR_GetINTStatus
 322              	.LVL7:
 323              		.loc 1 196 5 view .LVU46
 324 000a 0128     		cmp	r0, #1
 325 000c 00D0     		beq	.L32
 326              	.L29:
 197:./app/at32f4xx_it.c ****   {
 198:./app/at32f4xx_it.c ****     TMR_ClearITPendingBit(TMR3, TMR_INT_CC2);
 199:./app/at32f4xx_it.c ****     //tim_get_ppm();
ARM GAS  /tmp/cciYW7Ru.s 			page 10


 200:./app/at32f4xx_it.c ****   }
 201:./app/at32f4xx_it.c **** }
 327              		.loc 1 201 1 view .LVU47
 328 000e 08BD     		pop	{r3, pc}
 329              	.L32:
 198:./app/at32f4xx_it.c ****     //tim_get_ppm();
 330              		.loc 1 198 5 is_stmt 1 view .LVU48
 331 0010 0421     		movs	r1, #4
 332 0012 0248     		ldr	r0, .L33
 333 0014 FFF7FEFF 		bl	TMR_ClearITPendingBit
 334              	.LVL8:
 335              		.loc 1 201 1 is_stmt 0 view .LVU49
 336 0018 F9E7     		b	.L29
 337              	.L34:
 338 001a 00BF     		.align	2
 339              	.L33:
 340 001c 00040040 		.word	1073742848
 341              		.cfi_endproc
 342              	.LFE132:
 344              		.section	.text.TMR15_GLOBAL_IRQHandler,"ax",%progbits
 345              		.align	1
 346              		.global	TMR15_GLOBAL_IRQHandler
 347              		.syntax unified
 348              		.thumb
 349              		.thumb_func
 350              		.fpu fpv4-sp-d16
 352              	TMR15_GLOBAL_IRQHandler:
 353              	.LFB133:
 202:./app/at32f4xx_it.c **** 
 203:./app/at32f4xx_it.c **** void TMR15_GLOBAL_IRQHandler(void)
 204:./app/at32f4xx_it.c **** { 
 354              		.loc 1 204 1 is_stmt 1 view -0
 355              		.cfi_startproc
 356              		@ args = 0, pretend = 0, frame = 0
 357              		@ frame_needed = 0, uses_anonymous_args = 0
 358 0000 08B5     		push	{r3, lr}
 359              	.LCFI4:
 360              		.cfi_def_cfa_offset 8
 361              		.cfi_offset 3, -8
 362              		.cfi_offset 14, -4
 205:./app/at32f4xx_it.c ****   if(TMR_GetINTStatus(TMR15, TMR_INT_CC1) == SET) 
 363              		.loc 1 205 3 view .LVU51
 364              		.loc 1 205 6 is_stmt 0 view .LVU52
 365 0002 0221     		movs	r1, #2
 366 0004 0548     		ldr	r0, .L39
 367 0006 FFF7FEFF 		bl	TMR_GetINTStatus
 368              	.LVL9:
 369              		.loc 1 205 5 view .LVU53
 370 000a 0128     		cmp	r0, #1
 371 000c 00D0     		beq	.L38
 372              	.L35:
 206:./app/at32f4xx_it.c ****   {
 207:./app/at32f4xx_it.c ****     TMR_ClearITPendingBit(TMR15, TMR_INT_CC1);
 208:./app/at32f4xx_it.c ****     //tim_get_ppm();
 209:./app/at32f4xx_it.c ****   }
 210:./app/at32f4xx_it.c **** }
 373              		.loc 1 210 1 view .LVU54
ARM GAS  /tmp/cciYW7Ru.s 			page 11


 374 000e 08BD     		pop	{r3, pc}
 375              	.L38:
 207:./app/at32f4xx_it.c ****     //tim_get_ppm();
 376              		.loc 1 207 5 is_stmt 1 view .LVU55
 377 0010 0221     		movs	r1, #2
 378 0012 0248     		ldr	r0, .L39
 379 0014 FFF7FEFF 		bl	TMR_ClearITPendingBit
 380              	.LVL10:
 381              		.loc 1 210 1 is_stmt 0 view .LVU56
 382 0018 F9E7     		b	.L35
 383              	.L40:
 384 001a 00BF     		.align	2
 385              	.L39:
 386 001c 00400140 		.word	1073823744
 387              		.cfi_endproc
 388              	.LFE133:
 390              		.section	.text.EXTI1_0_IRQHandler,"ax",%progbits
 391              		.align	1
 392              		.global	EXTI1_0_IRQHandler
 393              		.syntax unified
 394              		.thumb
 395              		.thumb_func
 396              		.fpu fpv4-sp-d16
 398              	EXTI1_0_IRQHandler:
 399              	.LFB134:
 211:./app/at32f4xx_it.c **** 
 212:./app/at32f4xx_it.c **** 
 213:./app/at32f4xx_it.c **** void EXTI1_0_IRQHandler(void)
 214:./app/at32f4xx_it.c **** {
 400              		.loc 1 214 1 is_stmt 1 view -0
 401              		.cfi_startproc
 402              		@ args = 0, pretend = 0, frame = 0
 403              		@ frame_needed = 0, uses_anonymous_args = 0
 404 0000 08B5     		push	{r3, lr}
 405              	.LCFI5:
 406              		.cfi_def_cfa_offset 8
 407              		.cfi_offset 3, -8
 408              		.cfi_offset 14, -4
 215:./app/at32f4xx_it.c ****   if(EXTI_GetIntStatus(EXTI_Line0) == SET)
 409              		.loc 1 215 3 view .LVU58
 410              		.loc 1 215 6 is_stmt 0 view .LVU59
 411 0002 0120     		movs	r0, #1
 412 0004 FFF7FEFF 		bl	EXTI_GetIntStatus
 413              	.LVL11:
 414              		.loc 1 215 5 view .LVU60
 415 0008 0128     		cmp	r0, #1
 416 000a 00D0     		beq	.L44
 417              	.L41:
 216:./app/at32f4xx_it.c ****   {
 217:./app/at32f4xx_it.c ****     EXTI_ClearIntPendingBit(EXTI_Line0);
 218:./app/at32f4xx_it.c **** 	  //tim_get_ppm();
 219:./app/at32f4xx_it.c ****   }
 220:./app/at32f4xx_it.c **** }
 418              		.loc 1 220 1 view .LVU61
 419 000c 08BD     		pop	{r3, pc}
 420              	.L44:
 217:./app/at32f4xx_it.c **** 	  //tim_get_ppm();
ARM GAS  /tmp/cciYW7Ru.s 			page 12


 421              		.loc 1 217 5 is_stmt 1 view .LVU62
 422 000e FFF7FEFF 		bl	EXTI_ClearIntPendingBit
 423              	.LVL12:
 424              		.loc 1 220 1 is_stmt 0 view .LVU63
 425 0012 FBE7     		b	.L41
 426              		.cfi_endproc
 427              	.LFE134:
 429              		.section	.text.DMA1_Channel7_4_IRQHandler,"ax",%progbits
 430              		.align	1
 431              		.global	DMA1_Channel7_4_IRQHandler
 432              		.syntax unified
 433              		.thumb
 434              		.thumb_func
 435              		.fpu fpv4-sp-d16
 437              	DMA1_Channel7_4_IRQHandler:
 438              	.LFB135:
 221:./app/at32f4xx_it.c **** 
 222:./app/at32f4xx_it.c **** 
 223:./app/at32f4xx_it.c **** 
 224:./app/at32f4xx_it.c **** void DMA1_Channel7_4_IRQHandler(void)
 225:./app/at32f4xx_it.c **** {
 439              		.loc 1 225 1 is_stmt 1 view -0
 440              		.cfi_startproc
 441              		@ args = 0, pretend = 0, frame = 0
 442              		@ frame_needed = 0, uses_anonymous_args = 0
 443 0000 08B5     		push	{r3, lr}
 444              	.LCFI6:
 445              		.cfi_def_cfa_offset 8
 446              		.cfi_offset 3, -8
 447              		.cfi_offset 14, -4
 226:./app/at32f4xx_it.c **** 
 227:./app/at32f4xx_it.c **** 	//static int i = 0;
 228:./app/at32f4xx_it.c **** 	//static int j = 0;
 229:./app/at32f4xx_it.c **** 	//传输一半中断
 230:./app/at32f4xx_it.c **** 	if(DMA_GetITStatus(DMA1_INT_HT5) == SET)
 448              		.loc 1 230 2 view .LVU65
 449              		.loc 1 230 5 is_stmt 0 view .LVU66
 450 0002 4FF48020 		mov	r0, #262144
 451 0006 FFF7FEFF 		bl	DMA_GetITStatus
 452              	.LVL13:
 453              		.loc 1 230 4 view .LVU67
 454 000a 0128     		cmp	r0, #1
 455 000c 06D0     		beq	.L49
 456              	.L46:
 231:./app/at32f4xx_it.c **** 	{
 232:./app/at32f4xx_it.c **** 		DMA_ClearITPendingBit(DMA1_INT_HT5);
 233:./app/at32f4xx_it.c **** 
 234:./app/at32f4xx_it.c **** 		DMA1_CH5_HT_Transmission();
 235:./app/at32f4xx_it.c **** 		
 236:./app/at32f4xx_it.c **** 		//i++;
 237:./app/at32f4xx_it.c **** 	}
 238:./app/at32f4xx_it.c **** 	//传输完成中断
 239:./app/at32f4xx_it.c **** 	if(DMA_GetITStatus(DMA1_INT_TC5) == SET)
 457              		.loc 1 239 2 is_stmt 1 view .LVU68
 458              		.loc 1 239 5 is_stmt 0 view .LVU69
 459 000e 4FF40030 		mov	r0, #131072
 460 0012 FFF7FEFF 		bl	DMA_GetITStatus
ARM GAS  /tmp/cciYW7Ru.s 			page 13


 461              	.LVL14:
 462              		.loc 1 239 4 view .LVU70
 463 0016 0128     		cmp	r0, #1
 464 0018 07D0     		beq	.L50
 465              	.L45:
 240:./app/at32f4xx_it.c **** 	{
 241:./app/at32f4xx_it.c **** 		DMA_ClearITPendingBit(DMA1_INT_TC5);
 242:./app/at32f4xx_it.c **** 
 243:./app/at32f4xx_it.c **** 		DMA1_CH5_TC_Transmission();
 244:./app/at32f4xx_it.c **** 			
 245:./app/at32f4xx_it.c **** 		//j++;
 246:./app/at32f4xx_it.c **** 	}
 247:./app/at32f4xx_it.c **** }
 466              		.loc 1 247 1 view .LVU71
 467 001a 08BD     		pop	{r3, pc}
 468              	.L49:
 232:./app/at32f4xx_it.c **** 
 469              		.loc 1 232 3 is_stmt 1 view .LVU72
 470 001c 4FF48020 		mov	r0, #262144
 471 0020 FFF7FEFF 		bl	DMA_ClearITPendingBit
 472              	.LVL15:
 234:./app/at32f4xx_it.c **** 		
 473              		.loc 1 234 3 view .LVU73
 474 0024 FFF7FEFF 		bl	DMA1_CH5_HT_Transmission
 475              	.LVL16:
 476 0028 F1E7     		b	.L46
 477              	.L50:
 241:./app/at32f4xx_it.c **** 
 478              		.loc 1 241 3 view .LVU74
 479 002a 4FF40030 		mov	r0, #131072
 480 002e FFF7FEFF 		bl	DMA_ClearITPendingBit
 481              	.LVL17:
 243:./app/at32f4xx_it.c **** 			
 482              		.loc 1 243 3 view .LVU75
 483 0032 FFF7FEFF 		bl	DMA1_CH5_TC_Transmission
 484              	.LVL18:
 485              		.loc 1 247 1 is_stmt 0 view .LVU76
 486 0036 F0E7     		b	.L45
 487              		.cfi_endproc
 488              	.LFE135:
 490              		.global	motor_count
 491              		.global	led_flag
 492              		.section	.bss.led_flag,"aw",%nobits
 493              		.align	2
 496              	led_flag:
 497 0000 00000000 		.space	4
 498              		.section	.bss.motor_count,"aw",%nobits
 499              		.align	2
 502              	motor_count:
 503 0000 00000000 		.space	4
 504              		.text
 505              	.Letext0:
 506              		.file 2 "/usr/lib/gcc/arm-none-eabi/10.3.1/include/stdint.h"
 507              		.file 3 "CMSIS/at32f4xx.h"
 508              		.file 4 "lib/inc/at32f4xx_dma.h"
 509              		.file 5 "hardware/dma/dma_config.h"
 510              		.file 6 "lib/inc/at32f4xx_exti.h"
ARM GAS  /tmp/cciYW7Ru.s 			page 14


 511              		.file 7 "lib/inc/at32f4xx_tim.h"
 512              		.file 8 "lib/inc/at32f4xx_usart.h"
ARM GAS  /tmp/cciYW7Ru.s 			page 15

