ARM GAS  /tmp/ccAbBXXJ.s 			page 1


   1              		.cpu cortex-m4
   2              		.eabi_attribute 27, 1
   3              		.eabi_attribute 28, 1
   4              		.eabi_attribute 20, 1
   5              		.eabi_attribute 21, 1
   6              		.eabi_attribute 23, 3
   7              		.eabi_attribute 24, 1
   8              		.eabi_attribute 25, 1
   9              		.eabi_attribute 26, 1
  10              		.eabi_attribute 30, 1
  11              		.eabi_attribute 34, 1
  12              		.eabi_attribute 18, 4
  13              		.file	"at32f4xx_crc.c"
  14              		.text
  15              	.Ltext0:
  16              		.cfi_sections	.debug_frame
  17              		.section	.text.CRC_ResetDT,"ax",%progbits
  18              		.align	1
  19              		.global	CRC_ResetDT
  20              		.arch armv7e-m
  21              		.syntax unified
  22              		.thumb
  23              		.thumb_func
  24              		.fpu fpv4-sp-d16
  26              	CRC_ResetDT:
  27              	.LFB123:
  28              		.file 1 "./lib/src/at32f4xx_crc.c"
   1:./lib/src/at32f4xx_crc.c **** /**
   2:./lib/src/at32f4xx_crc.c ****   **************************************************************************
   3:./lib/src/at32f4xx_crc.c ****   * File   : at32f4xx_crc.c
   4:./lib/src/at32f4xx_crc.c ****   * Version: V1.2.4
   5:./lib/src/at32f4xx_crc.c ****   * Date   : 2020-08-26
   6:./lib/src/at32f4xx_crc.c ****   * Brief  : at32f4xx CRC source file
   7:./lib/src/at32f4xx_crc.c ****   **************************************************************************
   8:./lib/src/at32f4xx_crc.c ****   */
   9:./lib/src/at32f4xx_crc.c **** 
  10:./lib/src/at32f4xx_crc.c **** 
  11:./lib/src/at32f4xx_crc.c **** /* Includes ------------------------------------------------------------------*/
  12:./lib/src/at32f4xx_crc.c **** #include "at32f4xx_crc.h"
  13:./lib/src/at32f4xx_crc.c **** 
  14:./lib/src/at32f4xx_crc.c **** /** @addtogroup at32f4xx_StdPeriph_Driver
  15:./lib/src/at32f4xx_crc.c ****   * @{
  16:./lib/src/at32f4xx_crc.c ****   */
  17:./lib/src/at32f4xx_crc.c **** 
  18:./lib/src/at32f4xx_crc.c **** /** @defgroup CRC
  19:./lib/src/at32f4xx_crc.c ****   * @brief CRC driver modules
  20:./lib/src/at32f4xx_crc.c ****   * @{
  21:./lib/src/at32f4xx_crc.c ****   */
  22:./lib/src/at32f4xx_crc.c **** 
  23:./lib/src/at32f4xx_crc.c **** /** @defgroup CRC_Private_TypesDefinitions
  24:./lib/src/at32f4xx_crc.c ****   * @{
  25:./lib/src/at32f4xx_crc.c ****   */
  26:./lib/src/at32f4xx_crc.c **** 
  27:./lib/src/at32f4xx_crc.c **** /**
  28:./lib/src/at32f4xx_crc.c ****   * @}
  29:./lib/src/at32f4xx_crc.c ****   */
  30:./lib/src/at32f4xx_crc.c **** 
ARM GAS  /tmp/ccAbBXXJ.s 			page 2


  31:./lib/src/at32f4xx_crc.c **** /** @defgroup CRC_Private_Defines
  32:./lib/src/at32f4xx_crc.c ****   * @{
  33:./lib/src/at32f4xx_crc.c ****   */
  34:./lib/src/at32f4xx_crc.c **** 
  35:./lib/src/at32f4xx_crc.c **** /**
  36:./lib/src/at32f4xx_crc.c ****   * @}
  37:./lib/src/at32f4xx_crc.c ****   */
  38:./lib/src/at32f4xx_crc.c **** 
  39:./lib/src/at32f4xx_crc.c **** /** @defgroup CRC_Private_Macros
  40:./lib/src/at32f4xx_crc.c ****   * @{
  41:./lib/src/at32f4xx_crc.c ****   */
  42:./lib/src/at32f4xx_crc.c **** 
  43:./lib/src/at32f4xx_crc.c **** /**
  44:./lib/src/at32f4xx_crc.c ****   * @}
  45:./lib/src/at32f4xx_crc.c ****   */
  46:./lib/src/at32f4xx_crc.c **** 
  47:./lib/src/at32f4xx_crc.c **** /** @defgroup CRC_Private_Variables
  48:./lib/src/at32f4xx_crc.c ****   * @{
  49:./lib/src/at32f4xx_crc.c ****   */
  50:./lib/src/at32f4xx_crc.c **** 
  51:./lib/src/at32f4xx_crc.c **** /**
  52:./lib/src/at32f4xx_crc.c ****   * @}
  53:./lib/src/at32f4xx_crc.c ****   */
  54:./lib/src/at32f4xx_crc.c **** 
  55:./lib/src/at32f4xx_crc.c **** /** @defgroup CRC_Private_FunctionPrototypes
  56:./lib/src/at32f4xx_crc.c ****   * @{
  57:./lib/src/at32f4xx_crc.c ****   */
  58:./lib/src/at32f4xx_crc.c **** 
  59:./lib/src/at32f4xx_crc.c **** /**
  60:./lib/src/at32f4xx_crc.c ****   * @}
  61:./lib/src/at32f4xx_crc.c ****   */
  62:./lib/src/at32f4xx_crc.c **** 
  63:./lib/src/at32f4xx_crc.c **** /** @defgroup CRC_Private_Functions
  64:./lib/src/at32f4xx_crc.c ****   * @{
  65:./lib/src/at32f4xx_crc.c ****   */
  66:./lib/src/at32f4xx_crc.c **** 
  67:./lib/src/at32f4xx_crc.c **** /**
  68:./lib/src/at32f4xx_crc.c ****   * @brief  Resets the CRC Data register (DR).
  69:./lib/src/at32f4xx_crc.c ****   * @param  None
  70:./lib/src/at32f4xx_crc.c ****   * @retval None
  71:./lib/src/at32f4xx_crc.c ****   */
  72:./lib/src/at32f4xx_crc.c **** void CRC_ResetDT(void)
  73:./lib/src/at32f4xx_crc.c **** {
  29              		.loc 1 73 1 view -0
  30              		.cfi_startproc
  31              		@ args = 0, pretend = 0, frame = 0
  32              		@ frame_needed = 0, uses_anonymous_args = 0
  33              		@ link register save eliminated.
  74:./lib/src/at32f4xx_crc.c ****   /* Reset CRC generator */
  75:./lib/src/at32f4xx_crc.c ****   CRC->CTRL = CRC_CTRL_RST;
  34              		.loc 1 75 3 view .LVU1
  35              		.loc 1 75 13 is_stmt 0 view .LVU2
  36 0000 014B     		ldr	r3, .L2
  37 0002 0122     		movs	r2, #1
  38 0004 9A60     		str	r2, [r3, #8]
  76:./lib/src/at32f4xx_crc.c **** }
  39              		.loc 1 76 1 view .LVU3
ARM GAS  /tmp/ccAbBXXJ.s 			page 3


  40 0006 7047     		bx	lr
  41              	.L3:
  42              		.align	2
  43              	.L2:
  44 0008 00300240 		.word	1073885184
  45              		.cfi_endproc
  46              	.LFE123:
  48              		.section	.text.CRC_CalculateCRC,"ax",%progbits
  49              		.align	1
  50              		.global	CRC_CalculateCRC
  51              		.syntax unified
  52              		.thumb
  53              		.thumb_func
  54              		.fpu fpv4-sp-d16
  56              	CRC_CalculateCRC:
  57              	.LVL0:
  58              	.LFB124:
  77:./lib/src/at32f4xx_crc.c **** 
  78:./lib/src/at32f4xx_crc.c **** /**
  79:./lib/src/at32f4xx_crc.c ****   * @brief  Computes the 32-bit CRC of a given data word(32-bit).
  80:./lib/src/at32f4xx_crc.c ****   * @param  Data: data word(32-bit) to compute its CRC
  81:./lib/src/at32f4xx_crc.c ****   * @retval 32-bit CRC
  82:./lib/src/at32f4xx_crc.c ****   */
  83:./lib/src/at32f4xx_crc.c **** uint32_t CRC_CalculateCRC(uint32_t Data)
  84:./lib/src/at32f4xx_crc.c **** {
  59              		.loc 1 84 1 is_stmt 1 view -0
  60              		.cfi_startproc
  61              		@ args = 0, pretend = 0, frame = 0
  62              		@ frame_needed = 0, uses_anonymous_args = 0
  63              		@ link register save eliminated.
  85:./lib/src/at32f4xx_crc.c ****   CRC->DT = Data;
  64              		.loc 1 85 3 view .LVU5
  65              		.loc 1 85 11 is_stmt 0 view .LVU6
  66 0000 014B     		ldr	r3, .L5
  67 0002 1860     		str	r0, [r3]
  86:./lib/src/at32f4xx_crc.c **** 
  87:./lib/src/at32f4xx_crc.c ****   return (CRC->DT);
  68              		.loc 1 87 3 is_stmt 1 view .LVU7
  69              		.loc 1 87 14 is_stmt 0 view .LVU8
  70 0004 1868     		ldr	r0, [r3]
  71              	.LVL1:
  88:./lib/src/at32f4xx_crc.c **** }
  72              		.loc 1 88 1 view .LVU9
  73 0006 7047     		bx	lr
  74              	.L6:
  75              		.align	2
  76              	.L5:
  77 0008 00300240 		.word	1073885184
  78              		.cfi_endproc
  79              	.LFE124:
  81              		.section	.text.CRC_CalculateBlkCRC,"ax",%progbits
  82              		.align	1
  83              		.global	CRC_CalculateBlkCRC
  84              		.syntax unified
  85              		.thumb
  86              		.thumb_func
  87              		.fpu fpv4-sp-d16
ARM GAS  /tmp/ccAbBXXJ.s 			page 4


  89              	CRC_CalculateBlkCRC:
  90              	.LVL2:
  91              	.LFB125:
  89:./lib/src/at32f4xx_crc.c **** 
  90:./lib/src/at32f4xx_crc.c **** /**
  91:./lib/src/at32f4xx_crc.c ****   * @brief  Computes the 32-bit CRC of a given buffer of data word(32-bit).
  92:./lib/src/at32f4xx_crc.c ****   * @param  pBuffer: pointer to the buffer containing the data to be computed
  93:./lib/src/at32f4xx_crc.c ****   * @param  BufferLength: length of the buffer to be computed
  94:./lib/src/at32f4xx_crc.c ****   * @retval 32-bit CRC
  95:./lib/src/at32f4xx_crc.c ****   */
  96:./lib/src/at32f4xx_crc.c **** uint32_t CRC_CalculateBlkCRC(uint32_t pBuffer[], uint32_t BufferLength)
  97:./lib/src/at32f4xx_crc.c **** {
  92              		.loc 1 97 1 is_stmt 1 view -0
  93              		.cfi_startproc
  94              		@ args = 0, pretend = 0, frame = 0
  95              		@ frame_needed = 0, uses_anonymous_args = 0
  96              		@ link register save eliminated.
  98:./lib/src/at32f4xx_crc.c ****   uint32_t index = 0;
  97              		.loc 1 98 3 view .LVU11
  99:./lib/src/at32f4xx_crc.c **** 
 100:./lib/src/at32f4xx_crc.c ****   for(index = 0; index < BufferLength; index++)
  98              		.loc 1 100 3 view .LVU12
  99              		.loc 1 100 13 is_stmt 0 view .LVU13
 100 0000 0023     		movs	r3, #0
 101              	.LVL3:
 102              		.loc 1 100 18 is_stmt 1 view .LVU14
 103              		.loc 1 100 3 is_stmt 0 view .LVU15
 104 0002 8B42     		cmp	r3, r1
 105 0004 0CD2     		bcs	.L14
  97:./lib/src/at32f4xx_crc.c ****   uint32_t index = 0;
 106              		.loc 1 97 1 view .LVU16
 107 0006 10B4     		push	{r4}
 108              	.LCFI0:
 109              		.cfi_def_cfa_offset 4
 110              		.cfi_offset 4, -4
 111              	.L9:
 101:./lib/src/at32f4xx_crc.c ****   {
 102:./lib/src/at32f4xx_crc.c ****     CRC->DT = pBuffer[index];
 112              		.loc 1 102 5 is_stmt 1 discriminator 3 view .LVU17
 113              		.loc 1 102 13 is_stmt 0 discriminator 3 view .LVU18
 114 0008 074A     		ldr	r2, .L15
 115 000a 50F82340 		ldr	r4, [r0, r3, lsl #2]
 116 000e 1460     		str	r4, [r2]
 100:./lib/src/at32f4xx_crc.c ****   {
 117              		.loc 1 100 40 is_stmt 1 discriminator 3 view .LVU19
 100:./lib/src/at32f4xx_crc.c ****   {
 118              		.loc 1 100 45 is_stmt 0 discriminator 3 view .LVU20
 119 0010 0133     		adds	r3, r3, #1
 120              	.LVL4:
 100:./lib/src/at32f4xx_crc.c ****   {
 121              		.loc 1 100 18 is_stmt 1 discriminator 3 view .LVU21
 100:./lib/src/at32f4xx_crc.c ****   {
 122              		.loc 1 100 3 is_stmt 0 discriminator 3 view .LVU22
 123 0012 8B42     		cmp	r3, r1
 124 0014 F8D3     		bcc	.L9
 103:./lib/src/at32f4xx_crc.c ****   }
 104:./lib/src/at32f4xx_crc.c **** 
ARM GAS  /tmp/ccAbBXXJ.s 			page 5


 105:./lib/src/at32f4xx_crc.c ****   return (CRC->DT);
 125              		.loc 1 105 3 is_stmt 1 view .LVU23
 126              		.loc 1 105 14 is_stmt 0 view .LVU24
 127 0016 044B     		ldr	r3, .L15
 128              	.LVL5:
 129              		.loc 1 105 14 view .LVU25
 130 0018 1868     		ldr	r0, [r3]
 131              	.LVL6:
 106:./lib/src/at32f4xx_crc.c **** }
 132              		.loc 1 106 1 view .LVU26
 133 001a 5DF8044B 		ldr	r4, [sp], #4
 134              	.LCFI1:
 135              		.cfi_restore 4
 136              		.cfi_def_cfa_offset 0
 137 001e 7047     		bx	lr
 138              	.LVL7:
 139              	.L14:
 105:./lib/src/at32f4xx_crc.c **** }
 140              		.loc 1 105 3 is_stmt 1 view .LVU27
 105:./lib/src/at32f4xx_crc.c **** }
 141              		.loc 1 105 14 is_stmt 0 view .LVU28
 142 0020 014B     		ldr	r3, .L15
 143              	.LVL8:
 105:./lib/src/at32f4xx_crc.c **** }
 144              		.loc 1 105 14 view .LVU29
 145 0022 1868     		ldr	r0, [r3]
 146              	.LVL9:
 147              		.loc 1 106 1 view .LVU30
 148 0024 7047     		bx	lr
 149              	.L16:
 150 0026 00BF     		.align	2
 151              	.L15:
 152 0028 00300240 		.word	1073885184
 153              		.cfi_endproc
 154              	.LFE125:
 156              		.section	.text.CRC_GetCRC,"ax",%progbits
 157              		.align	1
 158              		.global	CRC_GetCRC
 159              		.syntax unified
 160              		.thumb
 161              		.thumb_func
 162              		.fpu fpv4-sp-d16
 164              	CRC_GetCRC:
 165              	.LFB126:
 107:./lib/src/at32f4xx_crc.c **** 
 108:./lib/src/at32f4xx_crc.c **** /**
 109:./lib/src/at32f4xx_crc.c ****   * @brief  Returns the current CRC value.
 110:./lib/src/at32f4xx_crc.c ****   * @param  None
 111:./lib/src/at32f4xx_crc.c ****   * @retval 32-bit CRC
 112:./lib/src/at32f4xx_crc.c ****   */
 113:./lib/src/at32f4xx_crc.c **** uint32_t CRC_GetCRC(void)
 114:./lib/src/at32f4xx_crc.c **** {
 166              		.loc 1 114 1 is_stmt 1 view -0
 167              		.cfi_startproc
 168              		@ args = 0, pretend = 0, frame = 0
 169              		@ frame_needed = 0, uses_anonymous_args = 0
 170              		@ link register save eliminated.
ARM GAS  /tmp/ccAbBXXJ.s 			page 6


 115:./lib/src/at32f4xx_crc.c ****   return (CRC->DT);
 171              		.loc 1 115 3 view .LVU32
 172              		.loc 1 115 14 is_stmt 0 view .LVU33
 173 0000 014B     		ldr	r3, .L18
 174 0002 1868     		ldr	r0, [r3]
 116:./lib/src/at32f4xx_crc.c **** }
 175              		.loc 1 116 1 view .LVU34
 176 0004 7047     		bx	lr
 177              	.L19:
 178 0006 00BF     		.align	2
 179              	.L18:
 180 0008 00300240 		.word	1073885184
 181              		.cfi_endproc
 182              	.LFE126:
 184              		.section	.text.CRC_SetIDTReg,"ax",%progbits
 185              		.align	1
 186              		.global	CRC_SetIDTReg
 187              		.syntax unified
 188              		.thumb
 189              		.thumb_func
 190              		.fpu fpv4-sp-d16
 192              	CRC_SetIDTReg:
 193              	.LVL10:
 194              	.LFB127:
 117:./lib/src/at32f4xx_crc.c **** 
 118:./lib/src/at32f4xx_crc.c **** /**
 119:./lib/src/at32f4xx_crc.c ****   * @brief  Stores a 8-bit data in the Independent Data(ID) register.
 120:./lib/src/at32f4xx_crc.c ****   * @param  IDValue: 8-bit value to be stored in the ID register
 121:./lib/src/at32f4xx_crc.c ****   * @retval None
 122:./lib/src/at32f4xx_crc.c ****   */
 123:./lib/src/at32f4xx_crc.c **** void CRC_SetIDTReg(uint8_t IDValue)
 124:./lib/src/at32f4xx_crc.c **** {
 195              		.loc 1 124 1 is_stmt 1 view -0
 196              		.cfi_startproc
 197              		@ args = 0, pretend = 0, frame = 0
 198              		@ frame_needed = 0, uses_anonymous_args = 0
 199              		@ link register save eliminated.
 125:./lib/src/at32f4xx_crc.c ****   CRC->IDT = IDValue;
 200              		.loc 1 125 3 view .LVU36
 201              		.loc 1 125 12 is_stmt 0 view .LVU37
 202 0000 014B     		ldr	r3, .L21
 203 0002 1871     		strb	r0, [r3, #4]
 126:./lib/src/at32f4xx_crc.c **** }
 204              		.loc 1 126 1 view .LVU38
 205 0004 7047     		bx	lr
 206              	.L22:
 207 0006 00BF     		.align	2
 208              	.L21:
 209 0008 00300240 		.word	1073885184
 210              		.cfi_endproc
 211              	.LFE127:
 213              		.section	.text.CRC_GetIDTReg,"ax",%progbits
 214              		.align	1
 215              		.global	CRC_GetIDTReg
 216              		.syntax unified
 217              		.thumb
 218              		.thumb_func
ARM GAS  /tmp/ccAbBXXJ.s 			page 7


 219              		.fpu fpv4-sp-d16
 221              	CRC_GetIDTReg:
 222              	.LFB128:
 127:./lib/src/at32f4xx_crc.c **** 
 128:./lib/src/at32f4xx_crc.c **** /**
 129:./lib/src/at32f4xx_crc.c ****   * @brief  Returns the 8-bit data stored in the Independent Data(ID) register
 130:./lib/src/at32f4xx_crc.c ****   * @param  None
 131:./lib/src/at32f4xx_crc.c ****   * @retval 8-bit value of the ID register
 132:./lib/src/at32f4xx_crc.c ****   */
 133:./lib/src/at32f4xx_crc.c **** uint8_t CRC_GetIDTReg(void)
 134:./lib/src/at32f4xx_crc.c **** {
 223              		.loc 1 134 1 is_stmt 1 view -0
 224              		.cfi_startproc
 225              		@ args = 0, pretend = 0, frame = 0
 226              		@ frame_needed = 0, uses_anonymous_args = 0
 227              		@ link register save eliminated.
 135:./lib/src/at32f4xx_crc.c ****   return (CRC->IDT);
 228              		.loc 1 135 3 view .LVU40
 229              		.loc 1 135 14 is_stmt 0 view .LVU41
 230 0000 014B     		ldr	r3, .L24
 231 0002 1879     		ldrb	r0, [r3, #4]	@ zero_extendqisi2
 136:./lib/src/at32f4xx_crc.c **** }
 232              		.loc 1 136 1 view .LVU42
 233 0004 7047     		bx	lr
 234              	.L25:
 235 0006 00BF     		.align	2
 236              	.L24:
 237 0008 00300240 		.word	1073885184
 238              		.cfi_endproc
 239              	.LFE128:
 241              		.text
 242              	.Letext0:
 243              		.file 2 "/usr/lib/gcc/arm-none-eabi/10.3.1/include/stdint.h"
 244              		.file 3 "CMSIS/at32f4xx.h"
ARM GAS  /tmp/ccAbBXXJ.s 			page 8

