ARM GAS  /tmp/ccTQ4F4N.s 			page 1


   1              		.cpu cortex-m4
   2              		.eabi_attribute 27, 1
   3              		.eabi_attribute 28, 1
   4              		.eabi_attribute 20, 1
   5              		.eabi_attribute 21, 1
   6              		.eabi_attribute 23, 3
   7              		.eabi_attribute 24, 1
   8              		.eabi_attribute 25, 1
   9              		.eabi_attribute 26, 1
  10              		.eabi_attribute 30, 1
  11              		.eabi_attribute 34, 1
  12              		.eabi_attribute 18, 4
  13              		.file	"at32f4xx_gpio_ex.c"
  14              		.text
  15              	.Ltext0:
  16              		.cfi_sections	.debug_frame
  17              		.section	.text.GPIO_Reset,"ax",%progbits
  18              		.align	1
  19              		.global	GPIO_Reset
  20              		.arch armv7e-m
  21              		.syntax unified
  22              		.thumb
  23              		.thumb_func
  24              		.fpu fpv4-sp-d16
  26              	GPIO_Reset:
  27              	.LVL0:
  28              	.LFB123:
  29              		.file 1 "./lib/src/at32f4xx_gpio_ex.c"
   1:./lib/src/at32f4xx_gpio_ex.c **** /**
   2:./lib/src/at32f4xx_gpio_ex.c ****   **************************************************************************
   3:./lib/src/at32f4xx_gpio_ex.c ****   * File   : at32f4xx_gpio_ex.c
   4:./lib/src/at32f4xx_gpio_ex.c ****   * Version: V1.2.4
   5:./lib/src/at32f4xx_gpio_ex.c ****   * Date   : 2020-08-26
   6:./lib/src/at32f4xx_gpio_ex.c ****   * Brief  : at32f4xx GPIO extended source file
   7:./lib/src/at32f4xx_gpio_ex.c ****   **************************************************************************
   8:./lib/src/at32f4xx_gpio_ex.c ****   */
   9:./lib/src/at32f4xx_gpio_ex.c **** 
  10:./lib/src/at32f4xx_gpio_ex.c **** /* Includes ------------------------------------------------------------------*/
  11:./lib/src/at32f4xx_gpio_ex.c **** #include "at32f4xx_gpio_ex.h"
  12:./lib/src/at32f4xx_gpio_ex.c **** #include "at32f4xx_rcc.h"
  13:./lib/src/at32f4xx_gpio_ex.c **** 
  14:./lib/src/at32f4xx_gpio_ex.c **** /** @addtogroup at32f4xx_StdPeriph_Driver
  15:./lib/src/at32f4xx_gpio_ex.c ****   * @{
  16:./lib/src/at32f4xx_gpio_ex.c ****   */
  17:./lib/src/at32f4xx_gpio_ex.c **** 
  18:./lib/src/at32f4xx_gpio_ex.c **** /** @defgroup GPIO
  19:./lib/src/at32f4xx_gpio_ex.c ****   * @brief GPIO driver modules
  20:./lib/src/at32f4xx_gpio_ex.c ****   * @{
  21:./lib/src/at32f4xx_gpio_ex.c ****   */
  22:./lib/src/at32f4xx_gpio_ex.c **** 
  23:./lib/src/at32f4xx_gpio_ex.c **** #if defined (AT32F421xx)
  24:./lib/src/at32f4xx_gpio_ex.c **** 
  25:./lib/src/at32f4xx_gpio_ex.c **** /** @defgroup GPIO_Private_TypesDefinitions
  26:./lib/src/at32f4xx_gpio_ex.c ****   * @{
  27:./lib/src/at32f4xx_gpio_ex.c ****   */
  28:./lib/src/at32f4xx_gpio_ex.c **** 
  29:./lib/src/at32f4xx_gpio_ex.c **** /**
ARM GAS  /tmp/ccTQ4F4N.s 			page 2


  30:./lib/src/at32f4xx_gpio_ex.c ****   * @}
  31:./lib/src/at32f4xx_gpio_ex.c ****   */
  32:./lib/src/at32f4xx_gpio_ex.c **** 
  33:./lib/src/at32f4xx_gpio_ex.c **** /** @defgroup GPIO_Private_Defines
  34:./lib/src/at32f4xx_gpio_ex.c ****   * @{
  35:./lib/src/at32f4xx_gpio_ex.c ****   */
  36:./lib/src/at32f4xx_gpio_ex.c **** 
  37:./lib/src/at32f4xx_gpio_ex.c **** /* ------------ RCC registers bit address in the alias region ----------------*/
  38:./lib/src/at32f4xx_gpio_ex.c **** #define AFIO_OFFSET                 (AFIO_BASE - PERIPH_BASE)
  39:./lib/src/at32f4xx_gpio_ex.c **** 
  40:./lib/src/at32f4xx_gpio_ex.c **** /* --- EVENTCR Register -----*/
  41:./lib/src/at32f4xx_gpio_ex.c **** 
  42:./lib/src/at32f4xx_gpio_ex.c **** /* Alias word address of EVOE bit */
  43:./lib/src/at32f4xx_gpio_ex.c **** #define EVCR_OFFSET                 (AFIO_OFFSET + 0x00)
  44:./lib/src/at32f4xx_gpio_ex.c **** #define EVOE_BitNumber              ((uint8_t)0x07)
  45:./lib/src/at32f4xx_gpio_ex.c **** #define EVCR_EVOE_BB                (PERIPH_BB_BASE + (EVCR_OFFSET * 32) + (EVOE_BitNumber * 4))
  46:./lib/src/at32f4xx_gpio_ex.c **** 
  47:./lib/src/at32f4xx_gpio_ex.c **** 
  48:./lib/src/at32f4xx_gpio_ex.c **** /* ---  MAPR Register ---*/
  49:./lib/src/at32f4xx_gpio_ex.c **** /* Alias word address of MII_RMII_SEL bit */
  50:./lib/src/at32f4xx_gpio_ex.c **** #define MAP_OFFSET                 (AFIO_OFFSET + 0x04)
  51:./lib/src/at32f4xx_gpio_ex.c **** #define MII_RMII_SEL_BitNumber      ((u8)0x17)
  52:./lib/src/at32f4xx_gpio_ex.c **** #define MAPR_MII_RMII_SEL_BB        (PERIPH_BB_BASE + (MAP_OFFSET * 32) + (MII_RMII_SEL_BitNumber *
  53:./lib/src/at32f4xx_gpio_ex.c **** 
  54:./lib/src/at32f4xx_gpio_ex.c **** 
  55:./lib/src/at32f4xx_gpio_ex.c **** #define EVCR_PORTPINCONFIG_MASK     ((uint16_t)0xFF80)
  56:./lib/src/at32f4xx_gpio_ex.c **** #define LSB_MASK                    ((uint16_t)0xFFFF)
  57:./lib/src/at32f4xx_gpio_ex.c **** #define DBGAFR_POSITION_MASK        ((uint32_t)0x000F0000)
  58:./lib/src/at32f4xx_gpio_ex.c **** #define DBGAFR_SWJCONF_MASK          ((uint32_t)0xF0FFFFFF)
  59:./lib/src/at32f4xx_gpio_ex.c **** #define DBGAFR_LOCATION_MASK        ((uint32_t)0x00200000)
  60:./lib/src/at32f4xx_gpio_ex.c **** #define DBGAFR_NUMBITS_MASK         ((uint32_t)0x00100000)
  61:./lib/src/at32f4xx_gpio_ex.c **** /**
  62:./lib/src/at32f4xx_gpio_ex.c ****   * @}
  63:./lib/src/at32f4xx_gpio_ex.c ****   */
  64:./lib/src/at32f4xx_gpio_ex.c **** 
  65:./lib/src/at32f4xx_gpio_ex.c **** /** @defgroup GPIO_Private_Macros
  66:./lib/src/at32f4xx_gpio_ex.c ****   * @{
  67:./lib/src/at32f4xx_gpio_ex.c ****   */
  68:./lib/src/at32f4xx_gpio_ex.c **** 
  69:./lib/src/at32f4xx_gpio_ex.c **** /**
  70:./lib/src/at32f4xx_gpio_ex.c ****   * @}
  71:./lib/src/at32f4xx_gpio_ex.c ****   */
  72:./lib/src/at32f4xx_gpio_ex.c **** 
  73:./lib/src/at32f4xx_gpio_ex.c **** /** @defgroup GPIO_Private_Variables
  74:./lib/src/at32f4xx_gpio_ex.c ****   * @{
  75:./lib/src/at32f4xx_gpio_ex.c ****   */
  76:./lib/src/at32f4xx_gpio_ex.c **** 
  77:./lib/src/at32f4xx_gpio_ex.c **** /**
  78:./lib/src/at32f4xx_gpio_ex.c ****   * @}
  79:./lib/src/at32f4xx_gpio_ex.c ****   */
  80:./lib/src/at32f4xx_gpio_ex.c **** 
  81:./lib/src/at32f4xx_gpio_ex.c **** /** @defgroup GPIO_Private_FunctionPrototypes
  82:./lib/src/at32f4xx_gpio_ex.c ****   * @{
  83:./lib/src/at32f4xx_gpio_ex.c ****   */
  84:./lib/src/at32f4xx_gpio_ex.c **** 
  85:./lib/src/at32f4xx_gpio_ex.c **** /**
  86:./lib/src/at32f4xx_gpio_ex.c ****   * @}
ARM GAS  /tmp/ccTQ4F4N.s 			page 3


  87:./lib/src/at32f4xx_gpio_ex.c ****   */
  88:./lib/src/at32f4xx_gpio_ex.c **** 
  89:./lib/src/at32f4xx_gpio_ex.c **** /** @defgroup GPIO_Private_Functions
  90:./lib/src/at32f4xx_gpio_ex.c ****   * @{
  91:./lib/src/at32f4xx_gpio_ex.c ****   */
  92:./lib/src/at32f4xx_gpio_ex.c **** 
  93:./lib/src/at32f4xx_gpio_ex.c **** /**
  94:./lib/src/at32f4xx_gpio_ex.c ****   * @brief  Deinitializes the GPIOx peripheral registers to their default reset values.
  95:./lib/src/at32f4xx_gpio_ex.c ****   * @param  GPIOx: where x can be (A..G) to select the GPIO peripheral.
  96:./lib/src/at32f4xx_gpio_ex.c ****   * @retval None
  97:./lib/src/at32f4xx_gpio_ex.c ****   */
  98:./lib/src/at32f4xx_gpio_ex.c **** void GPIO_Reset(GPIO_Type* GPIOx)
  99:./lib/src/at32f4xx_gpio_ex.c **** {
  30              		.loc 1 99 1 view -0
  31              		.cfi_startproc
  32              		@ args = 0, pretend = 0, frame = 0
  33              		@ frame_needed = 0, uses_anonymous_args = 0
  34              		.loc 1 99 1 is_stmt 0 view .LVU1
  35 0000 08B5     		push	{r3, lr}
  36              	.LCFI0:
  37              		.cfi_def_cfa_offset 8
  38              		.cfi_offset 3, -8
  39              		.cfi_offset 14, -4
 100:./lib/src/at32f4xx_gpio_ex.c ****   /* Check the parameters */
 101:./lib/src/at32f4xx_gpio_ex.c ****   assert_param(IS_GPIO_ALL_PERIPH(GPIOx));
  40              		.loc 1 101 3 is_stmt 1 view .LVU2
 102:./lib/src/at32f4xx_gpio_ex.c **** 
 103:./lib/src/at32f4xx_gpio_ex.c ****   if (GPIOx == GPIOA)
  41              		.loc 1 103 3 view .LVU3
  42              		.loc 1 103 6 is_stmt 0 view .LVU4
  43 0002 B0F1904F 		cmp	r0, #1207959552
  44 0006 09D0     		beq	.L7
 104:./lib/src/at32f4xx_gpio_ex.c ****   {
 105:./lib/src/at32f4xx_gpio_ex.c ****     RCC_AHBPeriphResetCmd(RCC_AHBPERIPH_GPIOA, ENABLE);
 106:./lib/src/at32f4xx_gpio_ex.c ****     RCC_AHBPeriphResetCmd(RCC_AHBPERIPH_GPIOA, DISABLE);
 107:./lib/src/at32f4xx_gpio_ex.c ****   }
 108:./lib/src/at32f4xx_gpio_ex.c ****   else if (GPIOx == GPIOB)
  45              		.loc 1 108 8 is_stmt 1 view .LVU5
  46              		.loc 1 108 11 is_stmt 0 view .LVU6
  47 0008 1A4B     		ldr	r3, .L11
  48 000a 9842     		cmp	r0, r3
  49 000c 11D0     		beq	.L8
 109:./lib/src/at32f4xx_gpio_ex.c ****   {
 110:./lib/src/at32f4xx_gpio_ex.c ****     RCC_AHBPeriphResetCmd(RCC_AHBPERIPH_GPIOB, ENABLE);
 111:./lib/src/at32f4xx_gpio_ex.c ****     RCC_AHBPeriphResetCmd(RCC_AHBPERIPH_GPIOB, DISABLE);
 112:./lib/src/at32f4xx_gpio_ex.c ****   }
 113:./lib/src/at32f4xx_gpio_ex.c ****   else if (GPIOx == GPIOC)
  50              		.loc 1 113 8 is_stmt 1 view .LVU7
  51              		.loc 1 113 11 is_stmt 0 view .LVU8
  52 000e 1A4B     		ldr	r3, .L11+4
  53 0010 9842     		cmp	r0, r3
  54 0012 19D0     		beq	.L9
 114:./lib/src/at32f4xx_gpio_ex.c ****   {
 115:./lib/src/at32f4xx_gpio_ex.c ****     RCC_AHBPeriphResetCmd(RCC_AHBPERIPH_GPIOC, ENABLE);
 116:./lib/src/at32f4xx_gpio_ex.c ****     RCC_AHBPeriphResetCmd(RCC_AHBPERIPH_GPIOC, DISABLE);
 117:./lib/src/at32f4xx_gpio_ex.c ****   }
 118:./lib/src/at32f4xx_gpio_ex.c ****   else if (GPIOx == GPIOF)
ARM GAS  /tmp/ccTQ4F4N.s 			page 4


  55              		.loc 1 118 8 is_stmt 1 view .LVU9
  56              		.loc 1 118 11 is_stmt 0 view .LVU10
  57 0014 194B     		ldr	r3, .L11+8
  58 0016 9842     		cmp	r0, r3
  59 0018 21D0     		beq	.L10
  60              	.LVL1:
  61              	.L1:
 119:./lib/src/at32f4xx_gpio_ex.c ****   {
 120:./lib/src/at32f4xx_gpio_ex.c ****     RCC_AHBPeriphResetCmd(RCC_AHBPERIPH_GPIOF, ENABLE);
 121:./lib/src/at32f4xx_gpio_ex.c ****     RCC_AHBPeriphResetCmd(RCC_AHBPERIPH_GPIOF, DISABLE);
 122:./lib/src/at32f4xx_gpio_ex.c ****   }
 123:./lib/src/at32f4xx_gpio_ex.c **** }
  62              		.loc 1 123 1 view .LVU11
  63 001a 08BD     		pop	{r3, pc}
  64              	.LVL2:
  65              	.L7:
 105:./lib/src/at32f4xx_gpio_ex.c ****     RCC_AHBPeriphResetCmd(RCC_AHBPERIPH_GPIOA, DISABLE);
  66              		.loc 1 105 5 is_stmt 1 view .LVU12
  67 001c 0121     		movs	r1, #1
  68 001e 4FF40030 		mov	r0, #131072
  69              	.LVL3:
 105:./lib/src/at32f4xx_gpio_ex.c ****     RCC_AHBPeriphResetCmd(RCC_AHBPERIPH_GPIOA, DISABLE);
  70              		.loc 1 105 5 is_stmt 0 view .LVU13
  71 0022 FFF7FEFF 		bl	RCC_AHBPeriphResetCmd
  72              	.LVL4:
 106:./lib/src/at32f4xx_gpio_ex.c ****   }
  73              		.loc 1 106 5 is_stmt 1 view .LVU14
  74 0026 0021     		movs	r1, #0
  75 0028 4FF40030 		mov	r0, #131072
  76 002c FFF7FEFF 		bl	RCC_AHBPeriphResetCmd
  77              	.LVL5:
  78 0030 F3E7     		b	.L1
  79              	.LVL6:
  80              	.L8:
 110:./lib/src/at32f4xx_gpio_ex.c ****     RCC_AHBPeriphResetCmd(RCC_AHBPERIPH_GPIOB, DISABLE);
  81              		.loc 1 110 5 view .LVU15
  82 0032 0121     		movs	r1, #1
  83 0034 4FF48020 		mov	r0, #262144
  84              	.LVL7:
 110:./lib/src/at32f4xx_gpio_ex.c ****     RCC_AHBPeriphResetCmd(RCC_AHBPERIPH_GPIOB, DISABLE);
  85              		.loc 1 110 5 is_stmt 0 view .LVU16
  86 0038 FFF7FEFF 		bl	RCC_AHBPeriphResetCmd
  87              	.LVL8:
 111:./lib/src/at32f4xx_gpio_ex.c ****   }
  88              		.loc 1 111 5 is_stmt 1 view .LVU17
  89 003c 0021     		movs	r1, #0
  90 003e 4FF48020 		mov	r0, #262144
  91 0042 FFF7FEFF 		bl	RCC_AHBPeriphResetCmd
  92              	.LVL9:
  93 0046 E8E7     		b	.L1
  94              	.LVL10:
  95              	.L9:
 115:./lib/src/at32f4xx_gpio_ex.c ****     RCC_AHBPeriphResetCmd(RCC_AHBPERIPH_GPIOC, DISABLE);
  96              		.loc 1 115 5 view .LVU18
  97 0048 0121     		movs	r1, #1
  98 004a 4FF40020 		mov	r0, #524288
  99              	.LVL11:
ARM GAS  /tmp/ccTQ4F4N.s 			page 5


 115:./lib/src/at32f4xx_gpio_ex.c ****     RCC_AHBPeriphResetCmd(RCC_AHBPERIPH_GPIOC, DISABLE);
 100              		.loc 1 115 5 is_stmt 0 view .LVU19
 101 004e FFF7FEFF 		bl	RCC_AHBPeriphResetCmd
 102              	.LVL12:
 116:./lib/src/at32f4xx_gpio_ex.c ****   }
 103              		.loc 1 116 5 is_stmt 1 view .LVU20
 104 0052 0021     		movs	r1, #0
 105 0054 4FF40020 		mov	r0, #524288
 106 0058 FFF7FEFF 		bl	RCC_AHBPeriphResetCmd
 107              	.LVL13:
 108 005c DDE7     		b	.L1
 109              	.LVL14:
 110              	.L10:
 120:./lib/src/at32f4xx_gpio_ex.c ****     RCC_AHBPeriphResetCmd(RCC_AHBPERIPH_GPIOF, DISABLE);
 111              		.loc 1 120 5 view .LVU21
 112 005e 0121     		movs	r1, #1
 113 0060 4FF48000 		mov	r0, #4194304
 114              	.LVL15:
 120:./lib/src/at32f4xx_gpio_ex.c ****     RCC_AHBPeriphResetCmd(RCC_AHBPERIPH_GPIOF, DISABLE);
 115              		.loc 1 120 5 is_stmt 0 view .LVU22
 116 0064 FFF7FEFF 		bl	RCC_AHBPeriphResetCmd
 117              	.LVL16:
 121:./lib/src/at32f4xx_gpio_ex.c ****   }
 118              		.loc 1 121 5 is_stmt 1 view .LVU23
 119 0068 0021     		movs	r1, #0
 120 006a 4FF48000 		mov	r0, #4194304
 121 006e FFF7FEFF 		bl	RCC_AHBPeriphResetCmd
 122              	.LVL17:
 123              		.loc 1 123 1 is_stmt 0 view .LVU24
 124 0072 D2E7     		b	.L1
 125              	.L12:
 126              		.align	2
 127              	.L11:
 128 0074 00040048 		.word	1207960576
 129 0078 00080048 		.word	1207961600
 130 007c 00140048 		.word	1207964672
 131              		.cfi_endproc
 132              	.LFE123:
 134              		.section	.text.GPIO_Init,"ax",%progbits
 135              		.align	1
 136              		.global	GPIO_Init
 137              		.syntax unified
 138              		.thumb
 139              		.thumb_func
 140              		.fpu fpv4-sp-d16
 142              	GPIO_Init:
 143              	.LVL18:
 144              	.LFB124:
 124:./lib/src/at32f4xx_gpio_ex.c **** 
 125:./lib/src/at32f4xx_gpio_ex.c **** /**
 126:./lib/src/at32f4xx_gpio_ex.c ****   * @brief  Initializes the GPIOx peripheral according to the specified
 127:./lib/src/at32f4xx_gpio_ex.c ****   *         parameters in the GPIO_InitStruct.
 128:./lib/src/at32f4xx_gpio_ex.c ****   * @param  GPIOx: where x can be (A..G) to select the GPIO peripheral.
 129:./lib/src/at32f4xx_gpio_ex.c ****   * @param  GPIO_InitStruct: pointer to a GPIO_InitType structure that
 130:./lib/src/at32f4xx_gpio_ex.c ****   *         contains the configuration information for the specified GPIO peripheral.
 131:./lib/src/at32f4xx_gpio_ex.c ****   * @retval None
 132:./lib/src/at32f4xx_gpio_ex.c ****   */
ARM GAS  /tmp/ccTQ4F4N.s 			page 6


 133:./lib/src/at32f4xx_gpio_ex.c **** void GPIO_Init(GPIO_Type* GPIOx, GPIO_InitType* GPIO_InitStruct)
 134:./lib/src/at32f4xx_gpio_ex.c **** {
 145              		.loc 1 134 1 is_stmt 1 view -0
 146              		.cfi_startproc
 147              		@ args = 0, pretend = 0, frame = 0
 148              		@ frame_needed = 0, uses_anonymous_args = 0
 135:./lib/src/at32f4xx_gpio_ex.c ****   uint32_t pinpos = 0x00, pos = 0x00 , currentpin = 0x00;
 149              		.loc 1 135 3 view .LVU26
 136:./lib/src/at32f4xx_gpio_ex.c **** 
 137:./lib/src/at32f4xx_gpio_ex.c ****   /* Check the parameters */
 138:./lib/src/at32f4xx_gpio_ex.c ****   assert_param(IS_GPIO_ALL_PERIPH(GPIOx));
 150              		.loc 1 138 3 view .LVU27
 139:./lib/src/at32f4xx_gpio_ex.c ****   assert_param(IS_GPIO_MDE(GPIO_InitStruct->GPIO_Mode));
 151              		.loc 1 139 3 view .LVU28
 140:./lib/src/at32f4xx_gpio_ex.c ****   assert_param(IS_GPIO_PINS(GPIO_InitStruct->GPIO_Pins));
 152              		.loc 1 140 3 view .LVU29
 141:./lib/src/at32f4xx_gpio_ex.c ****   assert_param(IS_GPIO_PUPD(GPIO_InitStruct->GPIO_Pull));
 153              		.loc 1 141 3 view .LVU30
 142:./lib/src/at32f4xx_gpio_ex.c ****   assert_param(IS_GPIO_OTYPE(GPIO_InitStruct->GPIO_OutType));
 154              		.loc 1 142 3 view .LVU31
 143:./lib/src/at32f4xx_gpio_ex.c ****   assert_param(IS_GPIO_MAXSPEED(GPIO_InitStruct->GPIO_MaxSpeed));
 155              		.loc 1 143 3 view .LVU32
 144:./lib/src/at32f4xx_gpio_ex.c **** 	
 145:./lib/src/at32f4xx_gpio_ex.c ****   if(!IS_GPIO_MDE(GPIO_InitStruct->GPIO_Mode))
 156              		.loc 1 145 3 view .LVU33
 157              		.loc 1 145 7 is_stmt 0 view .LVU34
 158 0000 CB78     		ldrb	r3, [r1, #3]	@ zero_extendqisi2
 159              		.loc 1 145 5 view .LVU35
 160 0002 032B     		cmp	r3, #3
 161 0004 01D9     		bls	.L14
 146:./lib/src/at32f4xx_gpio_ex.c ****   {
 147:./lib/src/at32f4xx_gpio_ex.c ****     GPIO_InitStruct->GPIO_Mode = GPIO_Mode_IN;
 162              		.loc 1 147 5 is_stmt 1 view .LVU36
 163              		.loc 1 147 32 is_stmt 0 view .LVU37
 164 0006 0023     		movs	r3, #0
 165 0008 CB70     		strb	r3, [r1, #3]
 166              	.L14:
 148:./lib/src/at32f4xx_gpio_ex.c ****   }
 149:./lib/src/at32f4xx_gpio_ex.c ****   if(!IS_GPIO_PUPD(GPIO_InitStruct->GPIO_Pull))
 167              		.loc 1 149 3 is_stmt 1 view .LVU38
 168              		.loc 1 149 7 is_stmt 0 view .LVU39
 169 000a 4B79     		ldrb	r3, [r1, #5]	@ zero_extendqisi2
 170              		.loc 1 149 5 view .LVU40
 171 000c 022B     		cmp	r3, #2
 172 000e 01D9     		bls	.L15
 150:./lib/src/at32f4xx_gpio_ex.c ****   {
 151:./lib/src/at32f4xx_gpio_ex.c ****     GPIO_InitStruct->GPIO_Pull = GPIO_Pull_NOPULL;
 173              		.loc 1 151 5 is_stmt 1 view .LVU41
 174              		.loc 1 151 32 is_stmt 0 view .LVU42
 175 0010 0023     		movs	r3, #0
 176 0012 4B71     		strb	r3, [r1, #5]
 177              	.L15:
 152:./lib/src/at32f4xx_gpio_ex.c ****   }
 153:./lib/src/at32f4xx_gpio_ex.c ****   if(!IS_GPIO_OTYPE(GPIO_InitStruct->GPIO_OutType))
 178              		.loc 1 153 3 is_stmt 1 view .LVU43
 179              		.loc 1 153 7 is_stmt 0 view .LVU44
 180 0014 0B79     		ldrb	r3, [r1, #4]	@ zero_extendqisi2
ARM GAS  /tmp/ccTQ4F4N.s 			page 7


 181              		.loc 1 153 5 view .LVU45
 182 0016 012B     		cmp	r3, #1
 183 0018 01D9     		bls	.L16
 154:./lib/src/at32f4xx_gpio_ex.c ****   {
 155:./lib/src/at32f4xx_gpio_ex.c ****     GPIO_InitStruct->GPIO_OutType = GPIO_OutType_PP;
 184              		.loc 1 155 5 is_stmt 1 view .LVU46
 185              		.loc 1 155 35 is_stmt 0 view .LVU47
 186 001a 0023     		movs	r3, #0
 187 001c 0B71     		strb	r3, [r1, #4]
 188              	.L16:
 156:./lib/src/at32f4xx_gpio_ex.c ****   }
 157:./lib/src/at32f4xx_gpio_ex.c ****   if(!IS_GPIO_MAXSPEED(GPIO_InitStruct->GPIO_MaxSpeed))
 189              		.loc 1 157 3 is_stmt 1 view .LVU48
 190              		.loc 1 157 7 is_stmt 0 view .LVU49
 191 001e 8B78     		ldrb	r3, [r1, #2]	@ zero_extendqisi2
 192              		.loc 1 157 6 view .LVU50
 193 0020 013B     		subs	r3, r3, #1
 194 0022 DBB2     		uxtb	r3, r3
 195              		.loc 1 157 5 view .LVU51
 196 0024 012B     		cmp	r3, #1
 197 0026 01D9     		bls	.L17
 158:./lib/src/at32f4xx_gpio_ex.c ****   {
 159:./lib/src/at32f4xx_gpio_ex.c ****     GPIO_InitStruct->GPIO_MaxSpeed = GPIO_MaxSpeed_2MHz;
 198              		.loc 1 159 5 is_stmt 1 view .LVU52
 199              		.loc 1 159 36 is_stmt 0 view .LVU53
 200 0028 0223     		movs	r3, #2
 201 002a 8B70     		strb	r3, [r1, #2]
 202              	.L17:
 134:./lib/src/at32f4xx_gpio_ex.c ****   uint32_t pinpos = 0x00, pos = 0x00 , currentpin = 0x00;
 203              		.loc 1 134 1 discriminator 1 view .LVU54
 204 002c 0023     		movs	r3, #0
 205              	.LVL19:
 160:./lib/src/at32f4xx_gpio_ex.c ****   }
 161:./lib/src/at32f4xx_gpio_ex.c **** 
 162:./lib/src/at32f4xx_gpio_ex.c ****   /*-------------------------- Configure the port pins -----------------------*/
 163:./lib/src/at32f4xx_gpio_ex.c ****   /*-- GPIO Mode Configuration --*/
 164:./lib/src/at32f4xx_gpio_ex.c ****   for (pinpos = 0x00; pinpos < 0x10; pinpos++)
 206              		.loc 1 164 23 is_stmt 1 discriminator 1 view .LVU55
 207              		.loc 1 164 3 is_stmt 0 discriminator 1 view .LVU56
 208 002e 0F2B     		cmp	r3, #15
 209 0030 7CD8     		bhi	.L27
 134:./lib/src/at32f4xx_gpio_ex.c ****   uint32_t pinpos = 0x00, pos = 0x00 , currentpin = 0x00;
 210              		.loc 1 134 1 view .LVU57
 211 0032 30B5     		push	{r4, r5, lr}
 212              	.LCFI1:
 213              		.cfi_def_cfa_offset 12
 214              		.cfi_offset 4, -12
 215              		.cfi_offset 5, -8
 216              		.cfi_offset 14, -4
 217 0034 50E0     		b	.L23
 218              	.LVL20:
 219              	.L29:
 165:./lib/src/at32f4xx_gpio_ex.c ****   {
 166:./lib/src/at32f4xx_gpio_ex.c ****     pos = ((uint32_t)0x01) << pinpos;
 167:./lib/src/at32f4xx_gpio_ex.c **** 
 168:./lib/src/at32f4xx_gpio_ex.c ****     /* Get the port pins position */
 169:./lib/src/at32f4xx_gpio_ex.c ****     currentpin = (GPIO_InitStruct->GPIO_Pins) & pos;
ARM GAS  /tmp/ccTQ4F4N.s 			page 8


 170:./lib/src/at32f4xx_gpio_ex.c **** 
 171:./lib/src/at32f4xx_gpio_ex.c ****     if (currentpin == pos)
 172:./lib/src/at32f4xx_gpio_ex.c ****     {
 173:./lib/src/at32f4xx_gpio_ex.c ****       if ((GPIO_InitStruct->GPIO_Mode == GPIO_Mode_OUT) || (GPIO_InitStruct->GPIO_Mode == GPIO_Mode
 174:./lib/src/at32f4xx_gpio_ex.c ****       {
 175:./lib/src/at32f4xx_gpio_ex.c ****         /* Check Speed mode parameters */
 176:./lib/src/at32f4xx_gpio_ex.c ****         assert_param(IS_GPIO_MAXSPEED(GPIO_InitStruct->GPIO_MaxSpeed));
 177:./lib/src/at32f4xx_gpio_ex.c **** 
 178:./lib/src/at32f4xx_gpio_ex.c ****         /* Speed mode configuration */
 179:./lib/src/at32f4xx_gpio_ex.c ****         if(GPIO_InitStruct->GPIO_MaxSpeed < GPIO_MaxSpeed_50MHz)
 180:./lib/src/at32f4xx_gpio_ex.c ****         {
 181:./lib/src/at32f4xx_gpio_ex.c ****           GPIOx->HDRV &= ~(GPIO_HDRV_HDRV0 << (pinpos));
 220              		.loc 1 181 11 is_stmt 1 view .LVU58
 221              		.loc 1 181 23 is_stmt 0 view .LVU59
 222 0036 828F     		ldrh	r2, [r0, #60]
 223              	.LVL21:
 224              		.loc 1 181 23 view .LVU60
 225 0038 92B2     		uxth	r2, r2
 226              		.loc 1 181 44 view .LVU61
 227 003a 0124     		movs	r4, #1
 228              	.LVL22:
 229              		.loc 1 181 44 view .LVU62
 230 003c 9C40     		lsls	r4, r4, r3
 231              	.LVL23:
 232              		.loc 1 181 23 view .LVU63
 233 003e 22EA0402 		bic	r2, r2, r4
 234 0042 8287     		strh	r2, [r0, #60]	@ movhi
 235              	.LVL24:
 182:./lib/src/at32f4xx_gpio_ex.c ****           GPIOx->ODRVR &= ~(GPIO_ODRVR_ODRV0 << (pinpos * 2));
 236              		.loc 1 182 11 is_stmt 1 view .LVU64
 237              		.loc 1 182 24 is_stmt 0 view .LVU65
 238 0044 8568     		ldr	r5, [r0, #8]
 239              		.loc 1 182 57 view .LVU66
 240 0046 4FEA430E 		lsl	lr, r3, #1
 241              		.loc 1 182 46 view .LVU67
 242 004a 4FF0030C 		mov	ip, #3
 243 004e 0CFA0EFC 		lsl	ip, ip, lr
 244              		.loc 1 182 24 view .LVU68
 245 0052 25EA0C05 		bic	r5, r5, ip
 246 0056 8560     		str	r5, [r0, #8]
 183:./lib/src/at32f4xx_gpio_ex.c ****           GPIOx->ODRVR |= ((uint32_t)(GPIO_InitStruct->GPIO_MaxSpeed) << (pinpos * 2));
 247              		.loc 1 183 11 is_stmt 1 view .LVU69
 248              		.loc 1 183 24 is_stmt 0 view .LVU70
 249 0058 8268     		ldr	r2, [r0, #8]
 250              		.loc 1 183 54 view .LVU71
 251 005a 8C78     		ldrb	r4, [r1, #2]	@ zero_extendqisi2
 252              		.loc 1 183 71 view .LVU72
 253 005c 04FA0EF4 		lsl	r4, r4, lr
 254              		.loc 1 183 24 view .LVU73
 255 0060 2243     		orrs	r2, r2, r4
 256 0062 8260     		str	r2, [r0, #8]
 257              	.L21:
 184:./lib/src/at32f4xx_gpio_ex.c ****         }
 185:./lib/src/at32f4xx_gpio_ex.c ****         else
 186:./lib/src/at32f4xx_gpio_ex.c ****         {
 187:./lib/src/at32f4xx_gpio_ex.c ****           GPIOx->HDRV &= ~(GPIO_HDRV_HDRV0 << (pinpos));
 188:./lib/src/at32f4xx_gpio_ex.c ****           GPIOx->ODRVR &= ~(GPIO_ODRVR_ODRV0 << (pinpos * 2));
ARM GAS  /tmp/ccTQ4F4N.s 			page 9


 189:./lib/src/at32f4xx_gpio_ex.c ****           GPIOx->HDRV |= ((uint32_t)GPIO_HDRV_HDRV0 << (pinpos));
 190:./lib/src/at32f4xx_gpio_ex.c ****         }
 191:./lib/src/at32f4xx_gpio_ex.c **** 
 192:./lib/src/at32f4xx_gpio_ex.c ****         /* Output mode configuration */
 193:./lib/src/at32f4xx_gpio_ex.c ****         GPIOx->OTYPER &= ~((GPIO_OTYPER_OT_0) << ((uint16_t)pinpos));
 258              		.loc 1 193 9 is_stmt 1 view .LVU74
 259              		.loc 1 193 23 is_stmt 0 view .LVU75
 260 0064 B0F804C0 		ldrh	ip, [r0, #4]
 261 0068 1FFA8CFC 		uxth	ip, ip
 262              		.loc 1 193 51 view .LVU76
 263 006c 9DB2     		uxth	r5, r3
 264              		.loc 1 193 47 view .LVU77
 265 006e 4FF0010E 		mov	lr, #1
 266              	.LVL25:
 267              		.loc 1 193 47 view .LVU78
 268 0072 0EFA05FE 		lsl	lr, lr, r5
 269              	.LVL26:
 270              		.loc 1 193 23 view .LVU79
 271 0076 2CEA0E0C 		bic	ip, ip, lr
 272 007a A0F804C0 		strh	ip, [r0, #4]	@ movhi
 194:./lib/src/at32f4xx_gpio_ex.c ****         GPIOx->OTYPER |= (uint16_t)(((uint16_t)GPIO_InitStruct->GPIO_OutType) << ((uint16_t)pinpos)
 273              		.loc 1 194 9 is_stmt 1 view .LVU80
 274              		.loc 1 194 23 is_stmt 0 view .LVU81
 275 007e 8288     		ldrh	r2, [r0, #4]
 276 0080 92B2     		uxth	r2, r2
 277              		.loc 1 194 63 view .LVU82
 278 0082 0C79     		ldrb	r4, [r1, #4]	@ zero_extendqisi2
 279              		.loc 1 194 79 view .LVU83
 280 0084 AC40     		lsls	r4, r4, r5
 281              		.loc 1 194 26 view .LVU84
 282 0086 A4B2     		uxth	r4, r4
 283              		.loc 1 194 23 view .LVU85
 284 0088 2243     		orrs	r2, r2, r4
 285 008a 8280     		strh	r2, [r0, #4]	@ movhi
 286              	.L19:
 195:./lib/src/at32f4xx_gpio_ex.c ****       }
 196:./lib/src/at32f4xx_gpio_ex.c **** 
 197:./lib/src/at32f4xx_gpio_ex.c ****       GPIOx->MODER  &= ~(GPIO_MODER_MODER0 << (pinpos * 2));
 287              		.loc 1 197 7 is_stmt 1 view .LVU86
 288              		.loc 1 197 21 is_stmt 0 view .LVU87
 289 008c 0468     		ldr	r4, [r0]
 290              		.loc 1 197 55 view .LVU88
 291 008e 4FEA430E 		lsl	lr, r3, #1
 292              		.loc 1 197 44 view .LVU89
 293 0092 0322     		movs	r2, #3
 294 0094 02FA0EFC 		lsl	ip, r2, lr
 295              		.loc 1 197 21 view .LVU90
 296 0098 24EA0C04 		bic	r4, r4, ip
 297 009c 0460     		str	r4, [r0]
 198:./lib/src/at32f4xx_gpio_ex.c **** 
 199:./lib/src/at32f4xx_gpio_ex.c ****       GPIOx->MODER |= (((uint32_t)GPIO_InitStruct->GPIO_Mode) << (pinpos * 2));
 298              		.loc 1 199 7 is_stmt 1 view .LVU91
 299              		.loc 1 199 20 is_stmt 0 view .LVU92
 300 009e 0468     		ldr	r4, [r0]
 301              		.loc 1 199 50 view .LVU93
 302 00a0 91F803C0 		ldrb	ip, [r1, #3]	@ zero_extendqisi2
 303              		.loc 1 199 63 view .LVU94
ARM GAS  /tmp/ccTQ4F4N.s 			page 10


 304 00a4 0CFA0EFC 		lsl	ip, ip, lr
 305              		.loc 1 199 20 view .LVU95
 306 00a8 44EA0C04 		orr	r4, r4, ip
 307 00ac 0460     		str	r4, [r0]
 200:./lib/src/at32f4xx_gpio_ex.c **** 
 201:./lib/src/at32f4xx_gpio_ex.c ****       /* Pull-up Pull down resistor configuration */
 202:./lib/src/at32f4xx_gpio_ex.c ****       GPIOx->PUPDR &= ~(GPIO_PUPDR_PUPDR0 << ((uint16_t)pinpos * 2));
 308              		.loc 1 202 7 is_stmt 1 view .LVU96
 309              		.loc 1 202 20 is_stmt 0 view .LVU97
 310 00ae C468     		ldr	r4, [r0, #12]
 311              		.loc 1 202 47 view .LVU98
 312 00b0 1FFA83FC 		uxth	ip, r3
 313              		.loc 1 202 64 view .LVU99
 314 00b4 4FEA4C0C 		lsl	ip, ip, #1
 315              		.loc 1 202 43 view .LVU100
 316 00b8 02FA0CF2 		lsl	r2, r2, ip
 317              		.loc 1 202 20 view .LVU101
 318 00bc 24EA0202 		bic	r2, r4, r2
 319 00c0 C260     		str	r2, [r0, #12]
 203:./lib/src/at32f4xx_gpio_ex.c ****       GPIOx->PUPDR |= (((uint32_t)GPIO_InitStruct->GPIO_Pull) << (pinpos * 2));
 320              		.loc 1 203 7 is_stmt 1 view .LVU102
 321              		.loc 1 203 20 is_stmt 0 view .LVU103
 322 00c2 C268     		ldr	r2, [r0, #12]
 323              		.loc 1 203 50 view .LVU104
 324 00c4 91F805C0 		ldrb	ip, [r1, #5]	@ zero_extendqisi2
 325              		.loc 1 203 63 view .LVU105
 326 00c8 0CFA0EFC 		lsl	ip, ip, lr
 327              		.loc 1 203 20 view .LVU106
 328 00cc 42EA0C02 		orr	r2, r2, ip
 329 00d0 C260     		str	r2, [r0, #12]
 330              	.L18:
 164:./lib/src/at32f4xx_gpio_ex.c ****   {
 331              		.loc 1 164 38 is_stmt 1 discriminator 2 view .LVU107
 164:./lib/src/at32f4xx_gpio_ex.c ****   {
 332              		.loc 1 164 44 is_stmt 0 discriminator 2 view .LVU108
 333 00d2 0133     		adds	r3, r3, #1
 334              	.LVL27:
 164:./lib/src/at32f4xx_gpio_ex.c ****   {
 335              		.loc 1 164 23 is_stmt 1 discriminator 2 view .LVU109
 164:./lib/src/at32f4xx_gpio_ex.c ****   {
 336              		.loc 1 164 3 is_stmt 0 discriminator 2 view .LVU110
 337 00d4 0F2B     		cmp	r3, #15
 338 00d6 28D8     		bhi	.L28
 339              	.LVL28:
 340              	.L23:
 166:./lib/src/at32f4xx_gpio_ex.c **** 
 341              		.loc 1 166 5 is_stmt 1 view .LVU111
 166:./lib/src/at32f4xx_gpio_ex.c **** 
 342              		.loc 1 166 9 is_stmt 0 view .LVU112
 343 00d8 0122     		movs	r2, #1
 344 00da 9A40     		lsls	r2, r2, r3
 345              	.LVL29:
 169:./lib/src/at32f4xx_gpio_ex.c **** 
 346              		.loc 1 169 5 is_stmt 1 view .LVU113
 169:./lib/src/at32f4xx_gpio_ex.c **** 
 347              		.loc 1 169 34 is_stmt 0 view .LVU114
 348 00dc B1F800C0 		ldrh	ip, [r1]
ARM GAS  /tmp/ccTQ4F4N.s 			page 11


 349              	.LVL30:
 171:./lib/src/at32f4xx_gpio_ex.c ****     {
 350              		.loc 1 171 5 is_stmt 1 view .LVU115
 171:./lib/src/at32f4xx_gpio_ex.c ****     {
 351              		.loc 1 171 8 is_stmt 0 view .LVU116
 352 00e0 32EA0C04 		bics	r4, r2, ip
 353 00e4 F5D1     		bne	.L18
 173:./lib/src/at32f4xx_gpio_ex.c ****       {
 354              		.loc 1 173 7 is_stmt 1 view .LVU117
 173:./lib/src/at32f4xx_gpio_ex.c ****       {
 355              		.loc 1 173 27 is_stmt 0 view .LVU118
 356 00e6 91F803C0 		ldrb	ip, [r1, #3]	@ zero_extendqisi2
 357              	.LVL31:
 173:./lib/src/at32f4xx_gpio_ex.c ****       {
 358              		.loc 1 173 57 view .LVU119
 359 00ea 0CF1FF3C 		add	ip, ip, #-1
 360 00ee 5FFA8CFC 		uxtb	ip, ip
 173:./lib/src/at32f4xx_gpio_ex.c ****       {
 361              		.loc 1 173 10 view .LVU120
 362 00f2 BCF1010F 		cmp	ip, #1
 363 00f6 C9D8     		bhi	.L19
 176:./lib/src/at32f4xx_gpio_ex.c **** 
 364              		.loc 1 176 9 is_stmt 1 view .LVU121
 179:./lib/src/at32f4xx_gpio_ex.c ****         {
 365              		.loc 1 179 9 view .LVU122
 179:./lib/src/at32f4xx_gpio_ex.c ****         {
 366              		.loc 1 179 27 is_stmt 0 view .LVU123
 367 00f8 8C78     		ldrb	r4, [r1, #2]	@ zero_extendqisi2
 179:./lib/src/at32f4xx_gpio_ex.c ****         {
 368              		.loc 1 179 11 view .LVU124
 369 00fa 012C     		cmp	r4, #1
 370 00fc 9BD9     		bls	.L29
 187:./lib/src/at32f4xx_gpio_ex.c ****           GPIOx->ODRVR &= ~(GPIO_ODRVR_ODRV0 << (pinpos * 2));
 371              		.loc 1 187 11 is_stmt 1 view .LVU125
 187:./lib/src/at32f4xx_gpio_ex.c ****           GPIOx->ODRVR &= ~(GPIO_ODRVR_ODRV0 << (pinpos * 2));
 372              		.loc 1 187 23 is_stmt 0 view .LVU126
 373 00fe 848F     		ldrh	r4, [r0, #60]
 374 0100 A4B2     		uxth	r4, r4
 187:./lib/src/at32f4xx_gpio_ex.c ****           GPIOx->ODRVR &= ~(GPIO_ODRVR_ODRV0 << (pinpos * 2));
 375              		.loc 1 187 44 view .LVU127
 376 0102 0125     		movs	r5, #1
 377 0104 9D40     		lsls	r5, r5, r3
 187:./lib/src/at32f4xx_gpio_ex.c ****           GPIOx->ODRVR &= ~(GPIO_ODRVR_ODRV0 << (pinpos * 2));
 378              		.loc 1 187 23 view .LVU128
 379 0106 24EA0504 		bic	r4, r4, r5
 380 010a 8487     		strh	r4, [r0, #60]	@ movhi
 381              	.LVL32:
 188:./lib/src/at32f4xx_gpio_ex.c ****           GPIOx->HDRV |= ((uint32_t)GPIO_HDRV_HDRV0 << (pinpos));
 382              		.loc 1 188 11 is_stmt 1 view .LVU129
 188:./lib/src/at32f4xx_gpio_ex.c ****           GPIOx->HDRV |= ((uint32_t)GPIO_HDRV_HDRV0 << (pinpos));
 383              		.loc 1 188 24 is_stmt 0 view .LVU130
 384 010c 8468     		ldr	r4, [r0, #8]
 188:./lib/src/at32f4xx_gpio_ex.c ****           GPIOx->HDRV |= ((uint32_t)GPIO_HDRV_HDRV0 << (pinpos));
 385              		.loc 1 188 57 view .LVU131
 386 010e 4FEA430C 		lsl	ip, r3, #1
 188:./lib/src/at32f4xx_gpio_ex.c ****           GPIOx->HDRV |= ((uint32_t)GPIO_HDRV_HDRV0 << (pinpos));
 387              		.loc 1 188 46 view .LVU132
ARM GAS  /tmp/ccTQ4F4N.s 			page 12


 388 0112 0325     		movs	r5, #3
 389 0114 05FA0CF5 		lsl	r5, r5, ip
 188:./lib/src/at32f4xx_gpio_ex.c ****           GPIOx->HDRV |= ((uint32_t)GPIO_HDRV_HDRV0 << (pinpos));
 390              		.loc 1 188 24 view .LVU133
 391 0118 24EA0504 		bic	r4, r4, r5
 392 011c 8460     		str	r4, [r0, #8]
 189:./lib/src/at32f4xx_gpio_ex.c ****         }
 393              		.loc 1 189 11 is_stmt 1 view .LVU134
 189:./lib/src/at32f4xx_gpio_ex.c ****         }
 394              		.loc 1 189 23 is_stmt 0 view .LVU135
 395 011e 848F     		ldrh	r4, [r0, #60]
 396 0120 A4B2     		uxth	r4, r4
 397 0122 2243     		orrs	r2, r2, r4
 398              	.LVL33:
 189:./lib/src/at32f4xx_gpio_ex.c ****         }
 399              		.loc 1 189 23 view .LVU136
 400 0124 92B2     		uxth	r2, r2
 401 0126 8287     		strh	r2, [r0, #60]	@ movhi
 402 0128 9CE7     		b	.L21
 403              	.LVL34:
 404              	.L28:
 204:./lib/src/at32f4xx_gpio_ex.c ****     }
 205:./lib/src/at32f4xx_gpio_ex.c ****   }
 206:./lib/src/at32f4xx_gpio_ex.c **** }
 405              		.loc 1 206 1 view .LVU137
 406 012a 30BD     		pop	{r4, r5, pc}
 407              	.LVL35:
 408              	.L27:
 409              	.LCFI2:
 410              		.cfi_def_cfa_offset 0
 411              		.cfi_restore 4
 412              		.cfi_restore 5
 413              		.cfi_restore 14
 414              		.loc 1 206 1 view .LVU138
 415 012c 7047     		bx	lr
 416              		.cfi_endproc
 417              	.LFE124:
 419              		.section	.text.GPIO_StructInit,"ax",%progbits
 420              		.align	1
 421              		.global	GPIO_StructInit
 422              		.syntax unified
 423              		.thumb
 424              		.thumb_func
 425              		.fpu fpv4-sp-d16
 427              	GPIO_StructInit:
 428              	.LVL36:
 429              	.LFB125:
 207:./lib/src/at32f4xx_gpio_ex.c **** 
 208:./lib/src/at32f4xx_gpio_ex.c **** /**
 209:./lib/src/at32f4xx_gpio_ex.c ****   * @brief  Fills each GPIO_InitStruct member with its default value.
 210:./lib/src/at32f4xx_gpio_ex.c ****   * @param  GPIO_InitStruct : pointer to a GPIO_InitType structure which will
 211:./lib/src/at32f4xx_gpio_ex.c ****   *         be initialized.
 212:./lib/src/at32f4xx_gpio_ex.c ****   * @retval None
 213:./lib/src/at32f4xx_gpio_ex.c ****   */
 214:./lib/src/at32f4xx_gpio_ex.c **** void GPIO_StructInit(GPIO_InitType* GPIO_InitStruct)
 215:./lib/src/at32f4xx_gpio_ex.c **** {
 430              		.loc 1 215 1 is_stmt 1 view -0
ARM GAS  /tmp/ccTQ4F4N.s 			page 13


 431              		.cfi_startproc
 432              		@ args = 0, pretend = 0, frame = 0
 433              		@ frame_needed = 0, uses_anonymous_args = 0
 434              		@ link register save eliminated.
 216:./lib/src/at32f4xx_gpio_ex.c ****   GPIO_InitStruct->GPIO_Pins  = GPIO_Pins_All;
 435              		.loc 1 216 3 view .LVU140
 436              		.loc 1 216 31 is_stmt 0 view .LVU141
 437 0000 4FF6FF73 		movw	r3, #65535
 438 0004 0380     		strh	r3, [r0]	@ movhi
 217:./lib/src/at32f4xx_gpio_ex.c ****   GPIO_InitStruct->GPIO_Mode = GPIO_Mode_IN;
 439              		.loc 1 217 3 is_stmt 1 view .LVU142
 440              		.loc 1 217 30 is_stmt 0 view .LVU143
 441 0006 0023     		movs	r3, #0
 442 0008 C370     		strb	r3, [r0, #3]
 218:./lib/src/at32f4xx_gpio_ex.c ****   GPIO_InitStruct->GPIO_MaxSpeed = GPIO_MaxSpeed_2MHz;
 443              		.loc 1 218 3 is_stmt 1 view .LVU144
 444              		.loc 1 218 34 is_stmt 0 view .LVU145
 445 000a 0222     		movs	r2, #2
 446 000c 8270     		strb	r2, [r0, #2]
 219:./lib/src/at32f4xx_gpio_ex.c ****   GPIO_InitStruct->GPIO_OutType = GPIO_OutType_PP;
 447              		.loc 1 219 3 is_stmt 1 view .LVU146
 448              		.loc 1 219 33 is_stmt 0 view .LVU147
 449 000e 0371     		strb	r3, [r0, #4]
 220:./lib/src/at32f4xx_gpio_ex.c ****   GPIO_InitStruct->GPIO_Pull = GPIO_Pull_NOPULL;
 450              		.loc 1 220 3 is_stmt 1 view .LVU148
 451              		.loc 1 220 30 is_stmt 0 view .LVU149
 452 0010 4371     		strb	r3, [r0, #5]
 221:./lib/src/at32f4xx_gpio_ex.c **** }
 453              		.loc 1 221 1 view .LVU150
 454 0012 7047     		bx	lr
 455              		.cfi_endproc
 456              	.LFE125:
 458              		.section	.text.GPIO_ReadInputDataBit,"ax",%progbits
 459              		.align	1
 460              		.global	GPIO_ReadInputDataBit
 461              		.syntax unified
 462              		.thumb
 463              		.thumb_func
 464              		.fpu fpv4-sp-d16
 466              	GPIO_ReadInputDataBit:
 467              	.LVL37:
 468              	.LFB126:
 222:./lib/src/at32f4xx_gpio_ex.c **** 
 223:./lib/src/at32f4xx_gpio_ex.c **** /**
 224:./lib/src/at32f4xx_gpio_ex.c ****   * @brief  Reads the specified input port pin.
 225:./lib/src/at32f4xx_gpio_ex.c ****   * @param  GPIOx: where x can be (A..G) to select the GPIO peripheral.
 226:./lib/src/at32f4xx_gpio_ex.c ****   * @param  GPIO_Pin:  specifies the port bit to read.
 227:./lib/src/at32f4xx_gpio_ex.c ****   *   This parameter can be GPIO_Pin_x where x can be (0..15).
 228:./lib/src/at32f4xx_gpio_ex.c ****   * @retval The input port pin value.
 229:./lib/src/at32f4xx_gpio_ex.c ****   */
 230:./lib/src/at32f4xx_gpio_ex.c **** uint8_t GPIO_ReadInputDataBit(GPIO_Type* GPIOx, uint16_t GPIO_Pin)
 231:./lib/src/at32f4xx_gpio_ex.c **** {
 469              		.loc 1 231 1 is_stmt 1 view -0
 470              		.cfi_startproc
 471              		@ args = 0, pretend = 0, frame = 0
 472              		@ frame_needed = 0, uses_anonymous_args = 0
 473              		@ link register save eliminated.
ARM GAS  /tmp/ccTQ4F4N.s 			page 14


 232:./lib/src/at32f4xx_gpio_ex.c ****   uint8_t bitstatus = 0x00;
 474              		.loc 1 232 3 view .LVU152
 233:./lib/src/at32f4xx_gpio_ex.c **** 
 234:./lib/src/at32f4xx_gpio_ex.c ****   /* Check the parameters */
 235:./lib/src/at32f4xx_gpio_ex.c ****   assert_param(IS_GPIO_ALL_PERIPH(GPIOx));
 475              		.loc 1 235 3 view .LVU153
 236:./lib/src/at32f4xx_gpio_ex.c ****   assert_param(IS_GET_GPIO_PINS(GPIO_Pin));
 476              		.loc 1 236 3 view .LVU154
 237:./lib/src/at32f4xx_gpio_ex.c **** 
 238:./lib/src/at32f4xx_gpio_ex.c ****   if ((GPIOx->IPTDT & GPIO_Pin) != (uint32_t)Bit_RESET)
 477              		.loc 1 238 3 view .LVU155
 478              		.loc 1 238 13 is_stmt 0 view .LVU156
 479 0000 038A     		ldrh	r3, [r0, #16]
 480              		.loc 1 238 6 view .LVU157
 481 0002 1942     		tst	r1, r3
 482 0004 01D0     		beq	.L33
 239:./lib/src/at32f4xx_gpio_ex.c ****   {
 240:./lib/src/at32f4xx_gpio_ex.c ****     bitstatus = (uint8_t)Bit_SET;
 483              		.loc 1 240 15 view .LVU158
 484 0006 0120     		movs	r0, #1
 485              	.LVL38:
 486              		.loc 1 240 15 view .LVU159
 487 0008 7047     		bx	lr
 488              	.LVL39:
 489              	.L33:
 241:./lib/src/at32f4xx_gpio_ex.c ****   }
 242:./lib/src/at32f4xx_gpio_ex.c ****   else
 243:./lib/src/at32f4xx_gpio_ex.c ****   {
 244:./lib/src/at32f4xx_gpio_ex.c ****     bitstatus = (uint8_t)Bit_RESET;
 490              		.loc 1 244 15 view .LVU160
 491 000a 0020     		movs	r0, #0
 492              	.LVL40:
 245:./lib/src/at32f4xx_gpio_ex.c ****   }
 246:./lib/src/at32f4xx_gpio_ex.c **** 
 247:./lib/src/at32f4xx_gpio_ex.c ****   return bitstatus;
 493              		.loc 1 247 3 is_stmt 1 view .LVU161
 248:./lib/src/at32f4xx_gpio_ex.c **** }
 494              		.loc 1 248 1 is_stmt 0 view .LVU162
 495 000c 7047     		bx	lr
 496              		.cfi_endproc
 497              	.LFE126:
 499              		.section	.text.GPIO_ReadInputData,"ax",%progbits
 500              		.align	1
 501              		.global	GPIO_ReadInputData
 502              		.syntax unified
 503              		.thumb
 504              		.thumb_func
 505              		.fpu fpv4-sp-d16
 507              	GPIO_ReadInputData:
 508              	.LVL41:
 509              	.LFB127:
 249:./lib/src/at32f4xx_gpio_ex.c **** 
 250:./lib/src/at32f4xx_gpio_ex.c **** /**
 251:./lib/src/at32f4xx_gpio_ex.c ****   * @brief  Reads the specified GPIO input data port.
 252:./lib/src/at32f4xx_gpio_ex.c ****   * @param  GPIOx: where x can be (A..G) to select the GPIO peripheral.
 253:./lib/src/at32f4xx_gpio_ex.c ****   * @retval GPIO input data port value.
 254:./lib/src/at32f4xx_gpio_ex.c ****   */
ARM GAS  /tmp/ccTQ4F4N.s 			page 15


 255:./lib/src/at32f4xx_gpio_ex.c **** uint16_t GPIO_ReadInputData(GPIO_Type* GPIOx)
 256:./lib/src/at32f4xx_gpio_ex.c **** {
 510              		.loc 1 256 1 is_stmt 1 view -0
 511              		.cfi_startproc
 512              		@ args = 0, pretend = 0, frame = 0
 513              		@ frame_needed = 0, uses_anonymous_args = 0
 514              		@ link register save eliminated.
 257:./lib/src/at32f4xx_gpio_ex.c ****   /* Check the parameters */
 258:./lib/src/at32f4xx_gpio_ex.c ****   assert_param(IS_GPIO_ALL_PERIPH(GPIOx));
 515              		.loc 1 258 3 view .LVU164
 259:./lib/src/at32f4xx_gpio_ex.c **** 
 260:./lib/src/at32f4xx_gpio_ex.c ****   return ((uint16_t)GPIOx->IPTDT);
 516              		.loc 1 260 3 view .LVU165
 517              		.loc 1 260 11 is_stmt 0 view .LVU166
 518 0000 008A     		ldrh	r0, [r0, #16]
 519              	.LVL42:
 261:./lib/src/at32f4xx_gpio_ex.c **** }
 520              		.loc 1 261 1 view .LVU167
 521 0002 80B2     		uxth	r0, r0
 522 0004 7047     		bx	lr
 523              		.cfi_endproc
 524              	.LFE127:
 526              		.section	.text.GPIO_ReadOutputDataBit,"ax",%progbits
 527              		.align	1
 528              		.global	GPIO_ReadOutputDataBit
 529              		.syntax unified
 530              		.thumb
 531              		.thumb_func
 532              		.fpu fpv4-sp-d16
 534              	GPIO_ReadOutputDataBit:
 535              	.LVL43:
 536              	.LFB128:
 262:./lib/src/at32f4xx_gpio_ex.c **** 
 263:./lib/src/at32f4xx_gpio_ex.c **** /**
 264:./lib/src/at32f4xx_gpio_ex.c ****   * @brief  Reads the specified output data port bit.
 265:./lib/src/at32f4xx_gpio_ex.c ****   * @param  GPIOx: where x can be (A..G) to select the GPIO peripheral.
 266:./lib/src/at32f4xx_gpio_ex.c ****   * @param  GPIO_Pin:  specifies the port bit to read.
 267:./lib/src/at32f4xx_gpio_ex.c ****   *   This parameter can be GPIO_Pin_x where x can be (0..15).
 268:./lib/src/at32f4xx_gpio_ex.c ****   * @retval The output port pin value.
 269:./lib/src/at32f4xx_gpio_ex.c ****   */
 270:./lib/src/at32f4xx_gpio_ex.c **** uint8_t GPIO_ReadOutputDataBit(GPIO_Type* GPIOx, uint16_t GPIO_Pin)
 271:./lib/src/at32f4xx_gpio_ex.c **** {
 537              		.loc 1 271 1 is_stmt 1 view -0
 538              		.cfi_startproc
 539              		@ args = 0, pretend = 0, frame = 0
 540              		@ frame_needed = 0, uses_anonymous_args = 0
 541              		@ link register save eliminated.
 272:./lib/src/at32f4xx_gpio_ex.c ****   uint8_t bitstatus = 0x00;
 542              		.loc 1 272 3 view .LVU169
 273:./lib/src/at32f4xx_gpio_ex.c ****   /* Check the parameters */
 274:./lib/src/at32f4xx_gpio_ex.c ****   assert_param(IS_GPIO_ALL_PERIPH(GPIOx));
 543              		.loc 1 274 3 view .LVU170
 275:./lib/src/at32f4xx_gpio_ex.c ****   assert_param(IS_GET_GPIO_PINS(GPIO_Pin));
 544              		.loc 1 275 3 view .LVU171
 276:./lib/src/at32f4xx_gpio_ex.c **** 
 277:./lib/src/at32f4xx_gpio_ex.c ****   if ((GPIOx->OPTDT & GPIO_Pin) != (uint32_t)Bit_RESET)
 545              		.loc 1 277 3 view .LVU172
ARM GAS  /tmp/ccTQ4F4N.s 			page 16


 546              		.loc 1 277 13 is_stmt 0 view .LVU173
 547 0000 838A     		ldrh	r3, [r0, #20]
 548              		.loc 1 277 6 view .LVU174
 549 0002 1942     		tst	r1, r3
 550 0004 01D0     		beq	.L37
 278:./lib/src/at32f4xx_gpio_ex.c ****   {
 279:./lib/src/at32f4xx_gpio_ex.c ****     bitstatus = (uint8_t)Bit_SET;
 551              		.loc 1 279 15 view .LVU175
 552 0006 0120     		movs	r0, #1
 553              	.LVL44:
 554              		.loc 1 279 15 view .LVU176
 555 0008 7047     		bx	lr
 556              	.LVL45:
 557              	.L37:
 280:./lib/src/at32f4xx_gpio_ex.c ****   }
 281:./lib/src/at32f4xx_gpio_ex.c ****   else
 282:./lib/src/at32f4xx_gpio_ex.c ****   {
 283:./lib/src/at32f4xx_gpio_ex.c ****     bitstatus = (uint8_t)Bit_RESET;
 558              		.loc 1 283 15 view .LVU177
 559 000a 0020     		movs	r0, #0
 560              	.LVL46:
 284:./lib/src/at32f4xx_gpio_ex.c ****   }
 285:./lib/src/at32f4xx_gpio_ex.c **** 
 286:./lib/src/at32f4xx_gpio_ex.c ****   return bitstatus;
 561              		.loc 1 286 3 is_stmt 1 view .LVU178
 287:./lib/src/at32f4xx_gpio_ex.c **** }
 562              		.loc 1 287 1 is_stmt 0 view .LVU179
 563 000c 7047     		bx	lr
 564              		.cfi_endproc
 565              	.LFE128:
 567              		.section	.text.GPIO_ReadOutputData,"ax",%progbits
 568              		.align	1
 569              		.global	GPIO_ReadOutputData
 570              		.syntax unified
 571              		.thumb
 572              		.thumb_func
 573              		.fpu fpv4-sp-d16
 575              	GPIO_ReadOutputData:
 576              	.LVL47:
 577              	.LFB129:
 288:./lib/src/at32f4xx_gpio_ex.c **** 
 289:./lib/src/at32f4xx_gpio_ex.c **** /**
 290:./lib/src/at32f4xx_gpio_ex.c ****   * @brief  Reads the specified GPIO output data port.
 291:./lib/src/at32f4xx_gpio_ex.c ****   * @param  GPIOx: where x can be (A..G) to select the GPIO peripheral.
 292:./lib/src/at32f4xx_gpio_ex.c ****   * @retval GPIO output data port value.
 293:./lib/src/at32f4xx_gpio_ex.c ****   */
 294:./lib/src/at32f4xx_gpio_ex.c **** uint16_t GPIO_ReadOutputData(GPIO_Type* GPIOx)
 295:./lib/src/at32f4xx_gpio_ex.c **** {
 578              		.loc 1 295 1 is_stmt 1 view -0
 579              		.cfi_startproc
 580              		@ args = 0, pretend = 0, frame = 0
 581              		@ frame_needed = 0, uses_anonymous_args = 0
 582              		@ link register save eliminated.
 296:./lib/src/at32f4xx_gpio_ex.c ****   /* Check the parameters */
 297:./lib/src/at32f4xx_gpio_ex.c ****   assert_param(IS_GPIO_ALL_PERIPH(GPIOx));
 583              		.loc 1 297 3 view .LVU181
 298:./lib/src/at32f4xx_gpio_ex.c **** 
ARM GAS  /tmp/ccTQ4F4N.s 			page 17


 299:./lib/src/at32f4xx_gpio_ex.c ****   return ((uint16_t)GPIOx->OPTDT);
 584              		.loc 1 299 3 view .LVU182
 585              		.loc 1 299 11 is_stmt 0 view .LVU183
 586 0000 808A     		ldrh	r0, [r0, #20]
 587              	.LVL48:
 300:./lib/src/at32f4xx_gpio_ex.c **** }
 588              		.loc 1 300 1 view .LVU184
 589 0002 80B2     		uxth	r0, r0
 590 0004 7047     		bx	lr
 591              		.cfi_endproc
 592              	.LFE129:
 594              		.section	.text.GPIO_SetBits,"ax",%progbits
 595              		.align	1
 596              		.global	GPIO_SetBits
 597              		.syntax unified
 598              		.thumb
 599              		.thumb_func
 600              		.fpu fpv4-sp-d16
 602              	GPIO_SetBits:
 603              	.LVL49:
 604              	.LFB130:
 301:./lib/src/at32f4xx_gpio_ex.c **** 
 302:./lib/src/at32f4xx_gpio_ex.c **** /**
 303:./lib/src/at32f4xx_gpio_ex.c ****   * @brief  Sets the selected data port bits.
 304:./lib/src/at32f4xx_gpio_ex.c ****   * @param  GPIOx: where x can be (A..G) to select the GPIO peripheral.
 305:./lib/src/at32f4xx_gpio_ex.c ****   * @param  GPIO_Pin: specifies the port bits to be written.
 306:./lib/src/at32f4xx_gpio_ex.c ****   *   This parameter can be any combination of GPIO_Pin_x where x can be (0..15).
 307:./lib/src/at32f4xx_gpio_ex.c ****   * @retval None
 308:./lib/src/at32f4xx_gpio_ex.c ****   */
 309:./lib/src/at32f4xx_gpio_ex.c **** void GPIO_SetBits(GPIO_Type* GPIOx, uint16_t GPIO_Pin)
 310:./lib/src/at32f4xx_gpio_ex.c **** {
 605              		.loc 1 310 1 is_stmt 1 view -0
 606              		.cfi_startproc
 607              		@ args = 0, pretend = 0, frame = 0
 608              		@ frame_needed = 0, uses_anonymous_args = 0
 609              		@ link register save eliminated.
 311:./lib/src/at32f4xx_gpio_ex.c ****   /* Check the parameters */
 312:./lib/src/at32f4xx_gpio_ex.c ****   assert_param(IS_GPIO_ALL_PERIPH(GPIOx));
 610              		.loc 1 312 3 view .LVU186
 313:./lib/src/at32f4xx_gpio_ex.c ****   assert_param(IS_GPIO_PINS(GPIO_Pin));
 611              		.loc 1 313 3 view .LVU187
 314:./lib/src/at32f4xx_gpio_ex.c **** 
 315:./lib/src/at32f4xx_gpio_ex.c ****   GPIOx->BSRE = GPIO_Pin;
 612              		.loc 1 315 3 view .LVU188
 613              		.loc 1 315 15 is_stmt 0 view .LVU189
 614 0000 8161     		str	r1, [r0, #24]
 316:./lib/src/at32f4xx_gpio_ex.c **** }
 615              		.loc 1 316 1 view .LVU190
 616 0002 7047     		bx	lr
 617              		.cfi_endproc
 618              	.LFE130:
 620              		.section	.text.GPIO_ResetBits,"ax",%progbits
 621              		.align	1
 622              		.global	GPIO_ResetBits
 623              		.syntax unified
 624              		.thumb
 625              		.thumb_func
ARM GAS  /tmp/ccTQ4F4N.s 			page 18


 626              		.fpu fpv4-sp-d16
 628              	GPIO_ResetBits:
 629              	.LVL50:
 630              	.LFB131:
 317:./lib/src/at32f4xx_gpio_ex.c **** 
 318:./lib/src/at32f4xx_gpio_ex.c **** /**
 319:./lib/src/at32f4xx_gpio_ex.c ****   * @brief  Clears the selected data port bits.
 320:./lib/src/at32f4xx_gpio_ex.c ****   * @param  GPIOx: where x can be (A..G) to select the GPIO peripheral.
 321:./lib/src/at32f4xx_gpio_ex.c ****   * @param  GPIO_Pin: specifies the port bits to be written.
 322:./lib/src/at32f4xx_gpio_ex.c ****   *   This parameter can be any combination of GPIO_Pin_x where x can be (0..15).
 323:./lib/src/at32f4xx_gpio_ex.c ****   * @retval None
 324:./lib/src/at32f4xx_gpio_ex.c ****   */
 325:./lib/src/at32f4xx_gpio_ex.c **** void GPIO_ResetBits(GPIO_Type* GPIOx, uint16_t GPIO_Pin)
 326:./lib/src/at32f4xx_gpio_ex.c **** {
 631              		.loc 1 326 1 is_stmt 1 view -0
 632              		.cfi_startproc
 633              		@ args = 0, pretend = 0, frame = 0
 634              		@ frame_needed = 0, uses_anonymous_args = 0
 635              		@ link register save eliminated.
 327:./lib/src/at32f4xx_gpio_ex.c ****   /* Check the parameters */
 328:./lib/src/at32f4xx_gpio_ex.c ****   assert_param(IS_GPIO_ALL_PERIPH(GPIOx));
 636              		.loc 1 328 3 view .LVU192
 329:./lib/src/at32f4xx_gpio_ex.c ****   assert_param(IS_GPIO_PINS(GPIO_Pin));
 637              		.loc 1 329 3 view .LVU193
 330:./lib/src/at32f4xx_gpio_ex.c **** 
 331:./lib/src/at32f4xx_gpio_ex.c ****   GPIOx->BRE = GPIO_Pin;
 638              		.loc 1 331 3 view .LVU194
 639              		.loc 1 331 14 is_stmt 0 view .LVU195
 640 0000 0185     		strh	r1, [r0, #40]	@ movhi
 332:./lib/src/at32f4xx_gpio_ex.c **** }
 641              		.loc 1 332 1 view .LVU196
 642 0002 7047     		bx	lr
 643              		.cfi_endproc
 644              	.LFE131:
 646              		.section	.text.GPIO_WriteBit,"ax",%progbits
 647              		.align	1
 648              		.global	GPIO_WriteBit
 649              		.syntax unified
 650              		.thumb
 651              		.thumb_func
 652              		.fpu fpv4-sp-d16
 654              	GPIO_WriteBit:
 655              	.LVL51:
 656              	.LFB132:
 333:./lib/src/at32f4xx_gpio_ex.c **** 
 334:./lib/src/at32f4xx_gpio_ex.c **** /**
 335:./lib/src/at32f4xx_gpio_ex.c ****   * @brief  Sets or clears the selected data port bit.
 336:./lib/src/at32f4xx_gpio_ex.c ****   * @param  GPIOx: where x can be (A..G) to select the GPIO peripheral.
 337:./lib/src/at32f4xx_gpio_ex.c ****   * @param  GPIO_Pin: specifies the port bit to be written.
 338:./lib/src/at32f4xx_gpio_ex.c ****   *   This parameter can be one of GPIO_Pin_x where x can be (0..15).
 339:./lib/src/at32f4xx_gpio_ex.c ****   * @param  BitVal: specifies the value to be written to the selected bit.
 340:./lib/src/at32f4xx_gpio_ex.c ****   *   This parameter can be one of the BitState enum values:
 341:./lib/src/at32f4xx_gpio_ex.c ****   *     @arg Bit_RESET: to clear the port pin
 342:./lib/src/at32f4xx_gpio_ex.c ****   *     @arg Bit_SET: to set the port pin
 343:./lib/src/at32f4xx_gpio_ex.c ****   * @retval None
 344:./lib/src/at32f4xx_gpio_ex.c ****   */
 345:./lib/src/at32f4xx_gpio_ex.c **** void GPIO_WriteBit(GPIO_Type* GPIOx, uint16_t GPIO_Pin, BitState BitVal)
ARM GAS  /tmp/ccTQ4F4N.s 			page 19


 346:./lib/src/at32f4xx_gpio_ex.c **** {
 657              		.loc 1 346 1 is_stmt 1 view -0
 658              		.cfi_startproc
 659              		@ args = 0, pretend = 0, frame = 0
 660              		@ frame_needed = 0, uses_anonymous_args = 0
 661              		@ link register save eliminated.
 347:./lib/src/at32f4xx_gpio_ex.c ****   /* Check the parameters */
 348:./lib/src/at32f4xx_gpio_ex.c ****   assert_param(IS_GPIO_ALL_PERIPH(GPIOx));
 662              		.loc 1 348 3 view .LVU198
 349:./lib/src/at32f4xx_gpio_ex.c ****   assert_param(IS_GET_GPIO_PINS(GPIO_Pin));
 663              		.loc 1 349 3 view .LVU199
 350:./lib/src/at32f4xx_gpio_ex.c ****   assert_param(IS_GPIO_BIT_STATE(BitVal));
 664              		.loc 1 350 3 view .LVU200
 351:./lib/src/at32f4xx_gpio_ex.c **** 
 352:./lib/src/at32f4xx_gpio_ex.c ****   if (BitVal != Bit_RESET)
 665              		.loc 1 352 3 view .LVU201
 666              		.loc 1 352 6 is_stmt 0 view .LVU202
 667 0000 0AB1     		cbz	r2, .L42
 353:./lib/src/at32f4xx_gpio_ex.c ****   {
 354:./lib/src/at32f4xx_gpio_ex.c ****     GPIOx->BSRE = GPIO_Pin;
 668              		.loc 1 354 5 is_stmt 1 view .LVU203
 669              		.loc 1 354 17 is_stmt 0 view .LVU204
 670 0002 8161     		str	r1, [r0, #24]
 671 0004 7047     		bx	lr
 672              	.L42:
 355:./lib/src/at32f4xx_gpio_ex.c ****   }
 356:./lib/src/at32f4xx_gpio_ex.c ****   else
 357:./lib/src/at32f4xx_gpio_ex.c ****   {
 358:./lib/src/at32f4xx_gpio_ex.c ****     GPIOx->BRE = GPIO_Pin;
 673              		.loc 1 358 5 is_stmt 1 view .LVU205
 674              		.loc 1 358 16 is_stmt 0 view .LVU206
 675 0006 0185     		strh	r1, [r0, #40]	@ movhi
 359:./lib/src/at32f4xx_gpio_ex.c ****   }
 360:./lib/src/at32f4xx_gpio_ex.c **** }
 676              		.loc 1 360 1 view .LVU207
 677 0008 7047     		bx	lr
 678              		.cfi_endproc
 679              	.LFE132:
 681              		.section	.text.GPIO_Write,"ax",%progbits
 682              		.align	1
 683              		.global	GPIO_Write
 684              		.syntax unified
 685              		.thumb
 686              		.thumb_func
 687              		.fpu fpv4-sp-d16
 689              	GPIO_Write:
 690              	.LVL52:
 691              	.LFB133:
 361:./lib/src/at32f4xx_gpio_ex.c **** 
 362:./lib/src/at32f4xx_gpio_ex.c **** /**
 363:./lib/src/at32f4xx_gpio_ex.c ****   * @brief  Writes data to the specified GPIO data port.
 364:./lib/src/at32f4xx_gpio_ex.c ****   * @param  GPIOx: where x can be (A..G) to select the GPIO peripheral.
 365:./lib/src/at32f4xx_gpio_ex.c ****   * @param  PortVal: specifies the value to be written to the port output data register.
 366:./lib/src/at32f4xx_gpio_ex.c ****   * @retval None
 367:./lib/src/at32f4xx_gpio_ex.c ****   */
 368:./lib/src/at32f4xx_gpio_ex.c **** void GPIO_Write(GPIO_Type* GPIOx, uint16_t PortVal)
 369:./lib/src/at32f4xx_gpio_ex.c **** {
ARM GAS  /tmp/ccTQ4F4N.s 			page 20


 692              		.loc 1 369 1 is_stmt 1 view -0
 693              		.cfi_startproc
 694              		@ args = 0, pretend = 0, frame = 0
 695              		@ frame_needed = 0, uses_anonymous_args = 0
 696              		@ link register save eliminated.
 370:./lib/src/at32f4xx_gpio_ex.c ****   /* Check the parameters */
 371:./lib/src/at32f4xx_gpio_ex.c ****   assert_param(IS_GPIO_ALL_PERIPH(GPIOx));
 697              		.loc 1 371 3 view .LVU209
 372:./lib/src/at32f4xx_gpio_ex.c **** 
 373:./lib/src/at32f4xx_gpio_ex.c ****   GPIOx->OPTDT = PortVal;
 698              		.loc 1 373 3 view .LVU210
 699              		.loc 1 373 16 is_stmt 0 view .LVU211
 700 0000 8182     		strh	r1, [r0, #20]	@ movhi
 374:./lib/src/at32f4xx_gpio_ex.c **** }
 701              		.loc 1 374 1 view .LVU212
 702 0002 7047     		bx	lr
 703              		.cfi_endproc
 704              	.LFE133:
 706              		.section	.text.GPIO_PinsLockConfig,"ax",%progbits
 707              		.align	1
 708              		.global	GPIO_PinsLockConfig
 709              		.syntax unified
 710              		.thumb
 711              		.thumb_func
 712              		.fpu fpv4-sp-d16
 714              	GPIO_PinsLockConfig:
 715              	.LVL53:
 716              	.LFB134:
 375:./lib/src/at32f4xx_gpio_ex.c **** 
 376:./lib/src/at32f4xx_gpio_ex.c **** /**
 377:./lib/src/at32f4xx_gpio_ex.c ****   * @brief  Locks GPIO Pins configuration registers.
 378:./lib/src/at32f4xx_gpio_ex.c ****   * @param  GPIOx: where x can be (A..G) to select the GPIO peripheral.
 379:./lib/src/at32f4xx_gpio_ex.c ****   * @param  GPIO_Pin: specifies the port bit to be written.
 380:./lib/src/at32f4xx_gpio_ex.c ****   *   This parameter can be any combination of GPIO_Pin_x where x can be (0..15).
 381:./lib/src/at32f4xx_gpio_ex.c ****   * @retval None
 382:./lib/src/at32f4xx_gpio_ex.c ****   */
 383:./lib/src/at32f4xx_gpio_ex.c **** void GPIO_PinsLockConfig(GPIO_Type* GPIOx, uint16_t GPIO_Pin)
 384:./lib/src/at32f4xx_gpio_ex.c **** {
 717              		.loc 1 384 1 is_stmt 1 view -0
 718              		.cfi_startproc
 719              		@ args = 0, pretend = 0, frame = 0
 720              		@ frame_needed = 0, uses_anonymous_args = 0
 721              		@ link register save eliminated.
 385:./lib/src/at32f4xx_gpio_ex.c ****   uint32_t tmp = 0x00010000;
 722              		.loc 1 385 3 view .LVU214
 386:./lib/src/at32f4xx_gpio_ex.c **** 
 387:./lib/src/at32f4xx_gpio_ex.c ****   /* Check the parameters */
 388:./lib/src/at32f4xx_gpio_ex.c ****   assert_param(IS_GPIO_ALL_PERIPH(GPIOx));
 723              		.loc 1 388 3 view .LVU215
 389:./lib/src/at32f4xx_gpio_ex.c ****   assert_param(IS_GPIO_PINS(GPIO_Pin));
 724              		.loc 1 389 3 view .LVU216
 390:./lib/src/at32f4xx_gpio_ex.c **** 
 391:./lib/src/at32f4xx_gpio_ex.c ****   tmp |= GPIO_Pin;
 725              		.loc 1 391 3 view .LVU217
 726              		.loc 1 391 7 is_stmt 0 view .LVU218
 727 0000 41F48033 		orr	r3, r1, #65536
 728              	.LVL54:
ARM GAS  /tmp/ccTQ4F4N.s 			page 21


 392:./lib/src/at32f4xx_gpio_ex.c ****   /* Set LCKK bit */
 393:./lib/src/at32f4xx_gpio_ex.c ****   GPIOx->LOCK = tmp;
 729              		.loc 1 393 3 is_stmt 1 view .LVU219
 730              		.loc 1 393 15 is_stmt 0 view .LVU220
 731 0004 C361     		str	r3, [r0, #28]
 394:./lib/src/at32f4xx_gpio_ex.c ****   /* Reset LCKK bit */
 395:./lib/src/at32f4xx_gpio_ex.c ****   GPIOx->LOCK =  GPIO_Pin;
 732              		.loc 1 395 3 is_stmt 1 view .LVU221
 733              		.loc 1 395 15 is_stmt 0 view .LVU222
 734 0006 C161     		str	r1, [r0, #28]
 396:./lib/src/at32f4xx_gpio_ex.c ****   /* Set LCKK bit */
 397:./lib/src/at32f4xx_gpio_ex.c ****   GPIOx->LOCK = tmp;
 735              		.loc 1 397 3 is_stmt 1 view .LVU223
 736              		.loc 1 397 15 is_stmt 0 view .LVU224
 737 0008 C361     		str	r3, [r0, #28]
 398:./lib/src/at32f4xx_gpio_ex.c ****   /* Read LCKK bit*/
 399:./lib/src/at32f4xx_gpio_ex.c ****   tmp = GPIOx->LOCK;
 738              		.loc 1 399 3 is_stmt 1 view .LVU225
 739              		.loc 1 399 7 is_stmt 0 view .LVU226
 740 000a C369     		ldr	r3, [r0, #28]
 741              	.LVL55:
 400:./lib/src/at32f4xx_gpio_ex.c ****   /* Read LCKK bit*/
 401:./lib/src/at32f4xx_gpio_ex.c ****   tmp = GPIOx->LOCK;
 742              		.loc 1 401 3 is_stmt 1 view .LVU227
 743              		.loc 1 401 7 is_stmt 0 view .LVU228
 744 000c C369     		ldr	r3, [r0, #28]
 402:./lib/src/at32f4xx_gpio_ex.c **** }
 745              		.loc 1 402 1 view .LVU229
 746 000e 7047     		bx	lr
 747              		.cfi_endproc
 748              	.LFE134:
 750              		.section	.text.GPIO_PinAFConfig,"ax",%progbits
 751              		.align	1
 752              		.global	GPIO_PinAFConfig
 753              		.syntax unified
 754              		.thumb
 755              		.thumb_func
 756              		.fpu fpv4-sp-d16
 758              	GPIO_PinAFConfig:
 759              	.LVL56:
 760              	.LFB135:
 403:./lib/src/at32f4xx_gpio_ex.c **** 
 404:./lib/src/at32f4xx_gpio_ex.c **** /**
 405:./lib/src/at32f4xx_gpio_ex.c ****   * @brief  Writes data to the specified GPIO data port.
 406:./lib/src/at32f4xx_gpio_ex.c ****   * @param  GPIOx: where x can be (A or B) to select the GPIO peripheral.
 407:./lib/src/at32f4xx_gpio_ex.c ****   * @param  GPIO_PinSource: specifies the pin for the Alternate function.
 408:./lib/src/at32f4xx_gpio_ex.c ****   *          This parameter can be GPIO_PinSourcex where x can be (0..15).
 409:./lib/src/at32f4xx_gpio_ex.c ****   * @param  GPIO_AF: selects the pin to used as Alternate function.
 410:./lib/src/at32f4xx_gpio_ex.c ****   *          This parameter can be one of the following value:
 411:./lib/src/at32f4xx_gpio_ex.c ****   *            @arg GPIO_AF_0: WKUP, EVENTOUT, TIM15, SPI1, TIM17,MCO, SWDAT, SWCLK, TIM14,
 412:./lib/src/at32f4xx_gpio_ex.c ****   *                            BOOT,USART1, CEC, IR_OUT, SPI2 
 413:./lib/src/at32f4xx_gpio_ex.c ****   *            @arg GPIO_AF_1: USART2, CEC, Tim3, USART1, USART2,EVENTOUT, I2C1, I2C2, TIM15 
 414:./lib/src/at32f4xx_gpio_ex.c ****   *            @arg GPIO_AF_2: TIM2, TIM1, EVENTOUT, TIM16, TIM17
 415:./lib/src/at32f4xx_gpio_ex.c ****   *            @arg GPIO_AF_3: TS, I2C1, TIM15, EVENTOUT 
 416:./lib/src/at32f4xx_gpio_ex.c ****   *            @arg GPIO_AF_4: TIM14
 417:./lib/src/at32f4xx_gpio_ex.c ****   *            @arg GPIO_AF_5: TIM16, TIM17
 418:./lib/src/at32f4xx_gpio_ex.c ****   *            @arg GPIO_AF_6: EVENTOUT
ARM GAS  /tmp/ccTQ4F4N.s 			page 22


 419:./lib/src/at32f4xx_gpio_ex.c ****   *            @arg GPIO_AF_7: COMP1 OUT, COMP2 OUT 
 420:./lib/src/at32f4xx_gpio_ex.c ****   * @note   The pin should already been configured in Alternate Function mode(AF)
 421:./lib/src/at32f4xx_gpio_ex.c ****   *         using GPIO_InitStruct->GPIO_Mode = GPIO_Mode_AF
 422:./lib/src/at32f4xx_gpio_ex.c ****   * @note   Refer to the Alternate function mapping table in the device datasheet 
 423:./lib/src/at32f4xx_gpio_ex.c ****   *         for the detailed mapping of the system and peripherals'alternate 
 424:./lib/src/at32f4xx_gpio_ex.c ****   *         function I/O pins.
 425:./lib/src/at32f4xx_gpio_ex.c ****   * @retval None
 426:./lib/src/at32f4xx_gpio_ex.c ****   */
 427:./lib/src/at32f4xx_gpio_ex.c **** void GPIO_PinAFConfig(GPIO_Type* GPIOx, uint16_t GPIO_PinSource, uint8_t GPIO_AF)
 428:./lib/src/at32f4xx_gpio_ex.c **** {
 761              		.loc 1 428 1 is_stmt 1 view -0
 762              		.cfi_startproc
 763              		@ args = 0, pretend = 0, frame = 0
 764              		@ frame_needed = 0, uses_anonymous_args = 0
 765              		.loc 1 428 1 is_stmt 0 view .LVU231
 766 0000 00B5     		push	{lr}
 767              	.LCFI3:
 768              		.cfi_def_cfa_offset 4
 769              		.cfi_offset 14, -4
 429:./lib/src/at32f4xx_gpio_ex.c ****   uint32_t temp = 0x00;
 770              		.loc 1 429 3 is_stmt 1 view .LVU232
 771              	.LVL57:
 430:./lib/src/at32f4xx_gpio_ex.c ****   uint32_t temp_2 = 0x00;
 772              		.loc 1 430 3 view .LVU233
 431:./lib/src/at32f4xx_gpio_ex.c **** 
 432:./lib/src/at32f4xx_gpio_ex.c ****   /* Check the parameters */
 433:./lib/src/at32f4xx_gpio_ex.c ****   assert_param(IS_GPIO_ALL_PERIPH(GPIOx));
 773              		.loc 1 433 3 view .LVU234
 434:./lib/src/at32f4xx_gpio_ex.c ****   assert_param(IS_GPIO_PINS_SOURCE(GPIO_PinSource));
 774              		.loc 1 434 3 view .LVU235
 435:./lib/src/at32f4xx_gpio_ex.c ****   assert_param(IS_GPIO_AF(GPIO_AF));
 775              		.loc 1 435 3 view .LVU236
 436:./lib/src/at32f4xx_gpio_ex.c **** 
 437:./lib/src/at32f4xx_gpio_ex.c ****   temp = ((uint32_t)(GPIO_AF) << ((uint32_t)((uint32_t)GPIO_PinSource & (uint32_t)0x07) * 4));
 776              		.loc 1 437 3 view .LVU237
 777              		.loc 1 437 35 is_stmt 0 view .LVU238
 778 0002 01F00703 		and	r3, r1, #7
 779              		.loc 1 437 89 view .LVU239
 780 0006 9B00     		lsls	r3, r3, #2
 781              		.loc 1 437 8 view .LVU240
 782 0008 02FA03FC 		lsl	ip, r2, r3
 783              	.LVL58:
 438:./lib/src/at32f4xx_gpio_ex.c ****   GPIOx->AFR[GPIO_PinSource >> 0x03] &= ~((uint32_t)0xF << ((uint32_t)((uint32_t)GPIO_PinSource & (
 784              		.loc 1 438 3 is_stmt 1 view .LVU241
 785              		.loc 1 438 38 is_stmt 0 view .LVU242
 786 000c C908     		lsrs	r1, r1, #3
 787              	.LVL59:
 788              		.loc 1 438 38 view .LVU243
 789 000e 0831     		adds	r1, r1, #8
 790 0010 50F82120 		ldr	r2, [r0, r1, lsl #2]
 791              	.LVL60:
 792              		.loc 1 438 57 view .LVU244
 793 0014 4FF00F0E 		mov	lr, #15
 794 0018 0EFA03F3 		lsl	r3, lr, r3
 795              		.loc 1 438 38 view .LVU245
 796 001c 22EA0303 		bic	r3, r2, r3
 797 0020 40F82130 		str	r3, [r0, r1, lsl #2]
ARM GAS  /tmp/ccTQ4F4N.s 			page 23


 439:./lib/src/at32f4xx_gpio_ex.c ****   temp_2 = GPIOx->AFR[GPIO_PinSource >> 0x03] | temp;
 798              		.loc 1 439 3 is_stmt 1 view .LVU246
 799              		.loc 1 439 22 is_stmt 0 view .LVU247
 800 0024 50F82120 		ldr	r2, [r0, r1, lsl #2]
 801              		.loc 1 439 10 view .LVU248
 802 0028 42EA0C02 		orr	r2, r2, ip
 803              	.LVL61:
 440:./lib/src/at32f4xx_gpio_ex.c ****   GPIOx->AFR[GPIO_PinSource >> 0x03] = temp_2;
 804              		.loc 1 440 3 is_stmt 1 view .LVU249
 805              		.loc 1 440 38 is_stmt 0 view .LVU250
 806 002c 40F82120 		str	r2, [r0, r1, lsl #2]
 441:./lib/src/at32f4xx_gpio_ex.c **** }
 807              		.loc 1 441 1 view .LVU251
 808 0030 5DF804FB 		ldr	pc, [sp], #4
 809              		.cfi_endproc
 810              	.LFE135:
 812              		.text
 813              	.Letext0:
 814              		.file 2 "/usr/lib/gcc/arm-none-eabi/10.3.1/include/stdint.h"
 815              		.file 3 "CMSIS/at32f4xx.h"
 816              		.file 4 "lib/inc/at32f4xx_gpio_ex.h"
 817              		.file 5 "lib/inc/at32f4xx_rcc.h"
ARM GAS  /tmp/ccTQ4F4N.s 			page 24

