ARM GAS  /tmp/cc6rPQl7.s 			page 1


   1              		.cpu cortex-m4
   2              		.eabi_attribute 27, 1
   3              		.eabi_attribute 28, 1
   4              		.eabi_attribute 20, 1
   5              		.eabi_attribute 21, 1
   6              		.eabi_attribute 23, 3
   7              		.eabi_attribute 24, 1
   8              		.eabi_attribute 25, 1
   9              		.eabi_attribute 26, 1
  10              		.eabi_attribute 30, 1
  11              		.eabi_attribute 34, 1
  12              		.eabi_attribute 18, 4
  13              		.file	"at32f4xx_iwdg.c"
  14              		.text
  15              	.Ltext0:
  16              		.cfi_sections	.debug_frame
  17              		.section	.text.IWDG_KeyRegWrite,"ax",%progbits
  18              		.align	1
  19              		.global	IWDG_KeyRegWrite
  20              		.arch armv7e-m
  21              		.syntax unified
  22              		.thumb
  23              		.thumb_func
  24              		.fpu fpv4-sp-d16
  26              	IWDG_KeyRegWrite:
  27              	.LVL0:
  28              	.LFB123:
  29              		.file 1 "./lib/src/at32f4xx_iwdg.c"
   1:./lib/src/at32f4xx_iwdg.c **** /**
   2:./lib/src/at32f4xx_iwdg.c ****   **************************************************************************
   3:./lib/src/at32f4xx_iwdg.c ****   * File   : at32f4xx_iwdg.c
   4:./lib/src/at32f4xx_iwdg.c ****   * Version: V1.2.4
   5:./lib/src/at32f4xx_iwdg.c ****   * Date   : 2020-08-26
   6:./lib/src/at32f4xx_iwdg.c ****   * Brief  : at32f4xx IWDG source file
   7:./lib/src/at32f4xx_iwdg.c ****   **************************************************************************
   8:./lib/src/at32f4xx_iwdg.c ****   */
   9:./lib/src/at32f4xx_iwdg.c **** 
  10:./lib/src/at32f4xx_iwdg.c **** 
  11:./lib/src/at32f4xx_iwdg.c **** /* Includes ------------------------------------------------------------------*/
  12:./lib/src/at32f4xx_iwdg.c **** #include "at32f4xx_iwdg.h"
  13:./lib/src/at32f4xx_iwdg.c **** 
  14:./lib/src/at32f4xx_iwdg.c **** /** @addtogroup at32f4xx_StdPeriph_Driver
  15:./lib/src/at32f4xx_iwdg.c ****   * @{
  16:./lib/src/at32f4xx_iwdg.c ****   */
  17:./lib/src/at32f4xx_iwdg.c **** 
  18:./lib/src/at32f4xx_iwdg.c **** /** @defgroup IWDG
  19:./lib/src/at32f4xx_iwdg.c ****   * @brief IWDG driver modules
  20:./lib/src/at32f4xx_iwdg.c ****   * @{
  21:./lib/src/at32f4xx_iwdg.c ****   */
  22:./lib/src/at32f4xx_iwdg.c **** 
  23:./lib/src/at32f4xx_iwdg.c **** /** @defgroup IWDG_Private_TypesDefinitions
  24:./lib/src/at32f4xx_iwdg.c ****   * @{
  25:./lib/src/at32f4xx_iwdg.c ****   */
  26:./lib/src/at32f4xx_iwdg.c **** 
  27:./lib/src/at32f4xx_iwdg.c **** /**
  28:./lib/src/at32f4xx_iwdg.c ****   * @}
  29:./lib/src/at32f4xx_iwdg.c ****   */
ARM GAS  /tmp/cc6rPQl7.s 			page 2


  30:./lib/src/at32f4xx_iwdg.c **** 
  31:./lib/src/at32f4xx_iwdg.c **** /** @defgroup IWDG_Private_Defines
  32:./lib/src/at32f4xx_iwdg.c ****   * @{
  33:./lib/src/at32f4xx_iwdg.c ****   */
  34:./lib/src/at32f4xx_iwdg.c **** 
  35:./lib/src/at32f4xx_iwdg.c **** /* ---------------------- IWDG registers bit mask ----------------------------*/
  36:./lib/src/at32f4xx_iwdg.c **** 
  37:./lib/src/at32f4xx_iwdg.c **** /* KR register bit mask */
  38:./lib/src/at32f4xx_iwdg.c **** #define KR_KEY_Reload           ((uint16_t)0xAAAA)
  39:./lib/src/at32f4xx_iwdg.c **** #define KR_KEY_Enable           ((uint16_t)0xCCCC)
  40:./lib/src/at32f4xx_iwdg.c **** 
  41:./lib/src/at32f4xx_iwdg.c **** /**
  42:./lib/src/at32f4xx_iwdg.c ****   * @}
  43:./lib/src/at32f4xx_iwdg.c ****   */
  44:./lib/src/at32f4xx_iwdg.c **** 
  45:./lib/src/at32f4xx_iwdg.c **** /** @defgroup IWDG_Private_Macros
  46:./lib/src/at32f4xx_iwdg.c ****   * @{
  47:./lib/src/at32f4xx_iwdg.c ****   */
  48:./lib/src/at32f4xx_iwdg.c **** 
  49:./lib/src/at32f4xx_iwdg.c **** /**
  50:./lib/src/at32f4xx_iwdg.c ****   * @}
  51:./lib/src/at32f4xx_iwdg.c ****   */
  52:./lib/src/at32f4xx_iwdg.c **** 
  53:./lib/src/at32f4xx_iwdg.c **** /** @defgroup IWDG_Private_Variables
  54:./lib/src/at32f4xx_iwdg.c ****   * @{
  55:./lib/src/at32f4xx_iwdg.c ****   */
  56:./lib/src/at32f4xx_iwdg.c **** 
  57:./lib/src/at32f4xx_iwdg.c **** /**
  58:./lib/src/at32f4xx_iwdg.c ****   * @}
  59:./lib/src/at32f4xx_iwdg.c ****   */
  60:./lib/src/at32f4xx_iwdg.c **** 
  61:./lib/src/at32f4xx_iwdg.c **** /** @defgroup IWDG_Private_FunctionPrototypes
  62:./lib/src/at32f4xx_iwdg.c ****   * @{
  63:./lib/src/at32f4xx_iwdg.c ****   */
  64:./lib/src/at32f4xx_iwdg.c **** 
  65:./lib/src/at32f4xx_iwdg.c **** /**
  66:./lib/src/at32f4xx_iwdg.c ****   * @}
  67:./lib/src/at32f4xx_iwdg.c ****   */
  68:./lib/src/at32f4xx_iwdg.c **** 
  69:./lib/src/at32f4xx_iwdg.c **** /** @defgroup IWDG_Private_Functions
  70:./lib/src/at32f4xx_iwdg.c ****   * @{
  71:./lib/src/at32f4xx_iwdg.c ****   */
  72:./lib/src/at32f4xx_iwdg.c **** 
  73:./lib/src/at32f4xx_iwdg.c **** /**
  74:./lib/src/at32f4xx_iwdg.c ****   * @brief  Enables or disables write access to IWDG_PR and IWDG_RLR registers.
  75:./lib/src/at32f4xx_iwdg.c ****   * @param  IWDG_WriteAccess: new state of write access to IWDG_PR and IWDG_RLR registers.
  76:./lib/src/at32f4xx_iwdg.c ****   *   This parameter can be one of the following values:
  77:./lib/src/at32f4xx_iwdg.c ****   *     @arg IWDG_KeyRegWrite_Enable: Enable write access to IWDG_PR and IWDG_RLR registers
  78:./lib/src/at32f4xx_iwdg.c ****   *     @arg IWDG_KeyRegWrite_Disable: Disable write access to IWDG_PR and IWDG_RLR registers
  79:./lib/src/at32f4xx_iwdg.c ****   * @retval None
  80:./lib/src/at32f4xx_iwdg.c ****   */
  81:./lib/src/at32f4xx_iwdg.c **** void IWDG_KeyRegWrite(uint16_t IWDG_WriteAccess)
  82:./lib/src/at32f4xx_iwdg.c **** {
  30              		.loc 1 82 1 view -0
  31              		.cfi_startproc
  32              		@ args = 0, pretend = 0, frame = 0
  33              		@ frame_needed = 0, uses_anonymous_args = 0
ARM GAS  /tmp/cc6rPQl7.s 			page 3


  34              		@ link register save eliminated.
  83:./lib/src/at32f4xx_iwdg.c ****   /* Check the parameters */
  84:./lib/src/at32f4xx_iwdg.c ****   assert_param(IS_IWDG_KEY_REG_WRITE(IWDG_WriteAccess));
  35              		.loc 1 84 3 view .LVU1
  85:./lib/src/at32f4xx_iwdg.c ****   IWDG->KEY = IWDG_WriteAccess;
  36              		.loc 1 85 3 view .LVU2
  37              		.loc 1 85 13 is_stmt 0 view .LVU3
  38 0000 014B     		ldr	r3, .L2
  39 0002 1860     		str	r0, [r3]
  86:./lib/src/at32f4xx_iwdg.c **** }
  40              		.loc 1 86 1 view .LVU4
  41 0004 7047     		bx	lr
  42              	.L3:
  43 0006 00BF     		.align	2
  44              	.L2:
  45 0008 00300040 		.word	1073754112
  46              		.cfi_endproc
  47              	.LFE123:
  49              		.section	.text.IWDG_SetPrescaler,"ax",%progbits
  50              		.align	1
  51              		.global	IWDG_SetPrescaler
  52              		.syntax unified
  53              		.thumb
  54              		.thumb_func
  55              		.fpu fpv4-sp-d16
  57              	IWDG_SetPrescaler:
  58              	.LVL1:
  59              	.LFB124:
  87:./lib/src/at32f4xx_iwdg.c **** 
  88:./lib/src/at32f4xx_iwdg.c **** /**
  89:./lib/src/at32f4xx_iwdg.c ****   * @brief  Sets IWDG Prescaler value.
  90:./lib/src/at32f4xx_iwdg.c ****   * @param  IWDG_Prescaler: specifies the IWDG Prescaler value.
  91:./lib/src/at32f4xx_iwdg.c ****   *   This parameter can be one of the following values:
  92:./lib/src/at32f4xx_iwdg.c ****   *     @arg IWDG_Psc_4: IWDG prescaler set to 4
  93:./lib/src/at32f4xx_iwdg.c ****   *     @arg IWDG_Psc_8: IWDG prescaler set to 8
  94:./lib/src/at32f4xx_iwdg.c ****   *     @arg IWDG_Psc_16: IWDG prescaler set to 16
  95:./lib/src/at32f4xx_iwdg.c ****   *     @arg IWDG_Psc_32: IWDG prescaler set to 32
  96:./lib/src/at32f4xx_iwdg.c ****   *     @arg IWDG_Psc_64: IWDG prescaler set to 64
  97:./lib/src/at32f4xx_iwdg.c ****   *     @arg IWDG_Psc_128: IWDG prescaler set to 128
  98:./lib/src/at32f4xx_iwdg.c ****   *     @arg IWDG_Psc_256: IWDG prescaler set to 256
  99:./lib/src/at32f4xx_iwdg.c ****   * @retval None
 100:./lib/src/at32f4xx_iwdg.c ****   */
 101:./lib/src/at32f4xx_iwdg.c **** void IWDG_SetPrescaler(uint8_t IWDG_Prescaler)
 102:./lib/src/at32f4xx_iwdg.c **** {
  60              		.loc 1 102 1 is_stmt 1 view -0
  61              		.cfi_startproc
  62              		@ args = 0, pretend = 0, frame = 0
  63              		@ frame_needed = 0, uses_anonymous_args = 0
  64              		@ link register save eliminated.
 103:./lib/src/at32f4xx_iwdg.c ****   /* Check the parameters */
 104:./lib/src/at32f4xx_iwdg.c ****   assert_param(IS_IWDG_PSC(IWDG_Prescaler));
  65              		.loc 1 104 3 view .LVU6
 105:./lib/src/at32f4xx_iwdg.c ****   IWDG->PSC = IWDG_Prescaler;
  66              		.loc 1 105 3 view .LVU7
  67              		.loc 1 105 13 is_stmt 0 view .LVU8
  68 0000 014B     		ldr	r3, .L5
  69 0002 5860     		str	r0, [r3, #4]
ARM GAS  /tmp/cc6rPQl7.s 			page 4


 106:./lib/src/at32f4xx_iwdg.c **** }
  70              		.loc 1 106 1 view .LVU9
  71 0004 7047     		bx	lr
  72              	.L6:
  73 0006 00BF     		.align	2
  74              	.L5:
  75 0008 00300040 		.word	1073754112
  76              		.cfi_endproc
  77              	.LFE124:
  79              		.section	.text.IWDG_SetReload,"ax",%progbits
  80              		.align	1
  81              		.global	IWDG_SetReload
  82              		.syntax unified
  83              		.thumb
  84              		.thumb_func
  85              		.fpu fpv4-sp-d16
  87              	IWDG_SetReload:
  88              	.LVL2:
  89              	.LFB125:
 107:./lib/src/at32f4xx_iwdg.c **** 
 108:./lib/src/at32f4xx_iwdg.c **** /**
 109:./lib/src/at32f4xx_iwdg.c ****   * @brief  Sets IWDG Reload value.
 110:./lib/src/at32f4xx_iwdg.c ****   * @param  Reload: specifies the IWDG Reload value.
 111:./lib/src/at32f4xx_iwdg.c ****   *   This parameter must be a number between 0 and 0x0FFF.
 112:./lib/src/at32f4xx_iwdg.c ****   * @retval None
 113:./lib/src/at32f4xx_iwdg.c ****   */
 114:./lib/src/at32f4xx_iwdg.c **** void IWDG_SetReload(uint16_t Reload)
 115:./lib/src/at32f4xx_iwdg.c **** {
  90              		.loc 1 115 1 is_stmt 1 view -0
  91              		.cfi_startproc
  92              		@ args = 0, pretend = 0, frame = 0
  93              		@ frame_needed = 0, uses_anonymous_args = 0
  94              		@ link register save eliminated.
 116:./lib/src/at32f4xx_iwdg.c ****   /* Check the parameters */
 117:./lib/src/at32f4xx_iwdg.c ****   assert_param(IS_IWDG_RLD(Reload));
  95              		.loc 1 117 3 view .LVU11
 118:./lib/src/at32f4xx_iwdg.c ****   IWDG->RLD = Reload;
  96              		.loc 1 118 3 view .LVU12
  97              		.loc 1 118 13 is_stmt 0 view .LVU13
  98 0000 014B     		ldr	r3, .L8
  99 0002 9860     		str	r0, [r3, #8]
 119:./lib/src/at32f4xx_iwdg.c **** }
 100              		.loc 1 119 1 view .LVU14
 101 0004 7047     		bx	lr
 102              	.L9:
 103 0006 00BF     		.align	2
 104              	.L8:
 105 0008 00300040 		.word	1073754112
 106              		.cfi_endproc
 107              	.LFE125:
 109              		.section	.text.IWDG_ReloadCounter,"ax",%progbits
 110              		.align	1
 111              		.global	IWDG_ReloadCounter
 112              		.syntax unified
 113              		.thumb
 114              		.thumb_func
 115              		.fpu fpv4-sp-d16
ARM GAS  /tmp/cc6rPQl7.s 			page 5


 117              	IWDG_ReloadCounter:
 118              	.LFB126:
 120:./lib/src/at32f4xx_iwdg.c **** 
 121:./lib/src/at32f4xx_iwdg.c **** /**
 122:./lib/src/at32f4xx_iwdg.c ****   * @brief  Reloads IWDG counter with value defined in the reload register
 123:./lib/src/at32f4xx_iwdg.c ****   *   (write access to IWDG_PR and IWDG_RLR registers disabled).
 124:./lib/src/at32f4xx_iwdg.c ****   * @param  None
 125:./lib/src/at32f4xx_iwdg.c ****   * @retval None
 126:./lib/src/at32f4xx_iwdg.c ****   */
 127:./lib/src/at32f4xx_iwdg.c **** void IWDG_ReloadCounter(void)
 128:./lib/src/at32f4xx_iwdg.c **** {
 119              		.loc 1 128 1 is_stmt 1 view -0
 120              		.cfi_startproc
 121              		@ args = 0, pretend = 0, frame = 0
 122              		@ frame_needed = 0, uses_anonymous_args = 0
 123              		@ link register save eliminated.
 129:./lib/src/at32f4xx_iwdg.c ****   IWDG->KEY = KR_KEY_Reload;
 124              		.loc 1 129 3 view .LVU16
 125              		.loc 1 129 13 is_stmt 0 view .LVU17
 126 0000 024B     		ldr	r3, .L11
 127 0002 4AF6AA22 		movw	r2, #43690
 128 0006 1A60     		str	r2, [r3]
 130:./lib/src/at32f4xx_iwdg.c **** }
 129              		.loc 1 130 1 view .LVU18
 130 0008 7047     		bx	lr
 131              	.L12:
 132 000a 00BF     		.align	2
 133              	.L11:
 134 000c 00300040 		.word	1073754112
 135              		.cfi_endproc
 136              	.LFE126:
 138              		.section	.text.IWDG_Enable,"ax",%progbits
 139              		.align	1
 140              		.global	IWDG_Enable
 141              		.syntax unified
 142              		.thumb
 143              		.thumb_func
 144              		.fpu fpv4-sp-d16
 146              	IWDG_Enable:
 147              	.LFB127:
 131:./lib/src/at32f4xx_iwdg.c **** 
 132:./lib/src/at32f4xx_iwdg.c **** /**
 133:./lib/src/at32f4xx_iwdg.c ****   * @brief  Enables IWDG (write access to IWDG_PR and IWDG_RLR registers disabled).
 134:./lib/src/at32f4xx_iwdg.c ****   * @param  None
 135:./lib/src/at32f4xx_iwdg.c ****   * @retval None
 136:./lib/src/at32f4xx_iwdg.c ****   */
 137:./lib/src/at32f4xx_iwdg.c **** void IWDG_Enable(void)
 138:./lib/src/at32f4xx_iwdg.c **** {
 148              		.loc 1 138 1 is_stmt 1 view -0
 149              		.cfi_startproc
 150              		@ args = 0, pretend = 0, frame = 0
 151              		@ frame_needed = 0, uses_anonymous_args = 0
 152              		@ link register save eliminated.
 139:./lib/src/at32f4xx_iwdg.c ****   IWDG->KEY = KR_KEY_Enable;
 153              		.loc 1 139 3 view .LVU20
 154              		.loc 1 139 13 is_stmt 0 view .LVU21
 155 0000 024B     		ldr	r3, .L14
ARM GAS  /tmp/cc6rPQl7.s 			page 6


 156 0002 4CF6CC42 		movw	r2, #52428
 157 0006 1A60     		str	r2, [r3]
 140:./lib/src/at32f4xx_iwdg.c **** }
 158              		.loc 1 140 1 view .LVU22
 159 0008 7047     		bx	lr
 160              	.L15:
 161 000a 00BF     		.align	2
 162              	.L14:
 163 000c 00300040 		.word	1073754112
 164              		.cfi_endproc
 165              	.LFE127:
 167              		.section	.text.IWDG_GetFlagStatus,"ax",%progbits
 168              		.align	1
 169              		.global	IWDG_GetFlagStatus
 170              		.syntax unified
 171              		.thumb
 172              		.thumb_func
 173              		.fpu fpv4-sp-d16
 175              	IWDG_GetFlagStatus:
 176              	.LVL3:
 177              	.LFB128:
 141:./lib/src/at32f4xx_iwdg.c **** 
 142:./lib/src/at32f4xx_iwdg.c **** /**
 143:./lib/src/at32f4xx_iwdg.c ****   * @brief  Checks whether the specified IWDG flag is set or not.
 144:./lib/src/at32f4xx_iwdg.c ****   * @param  IWDG_FLAG: specifies the flag to check.
 145:./lib/src/at32f4xx_iwdg.c ****   *   This parameter can be one of the following values:
 146:./lib/src/at32f4xx_iwdg.c ****   *     @arg IWDG_FLAG_PSCF: Prescaler Value Update on going
 147:./lib/src/at32f4xx_iwdg.c ****   *     @arg IWDG_FLAG_RLDF: Reload Value Update on going
 148:./lib/src/at32f4xx_iwdg.c ****   * @retval The new state of IWDG_FLAG (SET or RESET).
 149:./lib/src/at32f4xx_iwdg.c ****   */
 150:./lib/src/at32f4xx_iwdg.c **** FlagStatus IWDG_GetFlagStatus(uint16_t IWDG_FLAG)
 151:./lib/src/at32f4xx_iwdg.c **** {
 178              		.loc 1 151 1 is_stmt 1 view -0
 179              		.cfi_startproc
 180              		@ args = 0, pretend = 0, frame = 0
 181              		@ frame_needed = 0, uses_anonymous_args = 0
 182              		@ link register save eliminated.
 152:./lib/src/at32f4xx_iwdg.c ****   FlagStatus bitstatus = RESET;
 183              		.loc 1 152 3 view .LVU24
 153:./lib/src/at32f4xx_iwdg.c ****   /* Check the parameters */
 154:./lib/src/at32f4xx_iwdg.c ****   assert_param(IS_IWDG_FLAG(IWDG_FLAG));
 184              		.loc 1 154 3 view .LVU25
 155:./lib/src/at32f4xx_iwdg.c **** 
 156:./lib/src/at32f4xx_iwdg.c ****   if ((IWDG->STS & IWDG_FLAG) != (uint32_t)RESET)
 185              		.loc 1 156 3 view .LVU26
 186              		.loc 1 156 12 is_stmt 0 view .LVU27
 187 0000 034B     		ldr	r3, .L19
 188 0002 DB68     		ldr	r3, [r3, #12]
 189              		.loc 1 156 6 view .LVU28
 190 0004 1842     		tst	r0, r3
 191 0006 01D0     		beq	.L18
 157:./lib/src/at32f4xx_iwdg.c ****   {
 158:./lib/src/at32f4xx_iwdg.c ****     bitstatus = SET;
 192              		.loc 1 158 15 view .LVU29
 193 0008 0120     		movs	r0, #1
 194              	.LVL4:
 195              		.loc 1 158 15 view .LVU30
ARM GAS  /tmp/cc6rPQl7.s 			page 7


 196 000a 7047     		bx	lr
 197              	.LVL5:
 198              	.L18:
 159:./lib/src/at32f4xx_iwdg.c ****   }
 160:./lib/src/at32f4xx_iwdg.c ****   else
 161:./lib/src/at32f4xx_iwdg.c ****   {
 162:./lib/src/at32f4xx_iwdg.c ****     bitstatus = RESET;
 199              		.loc 1 162 15 view .LVU31
 200 000c 0020     		movs	r0, #0
 201              	.LVL6:
 163:./lib/src/at32f4xx_iwdg.c ****   }
 164:./lib/src/at32f4xx_iwdg.c **** 
 165:./lib/src/at32f4xx_iwdg.c ****   /* Return the flag status */
 166:./lib/src/at32f4xx_iwdg.c ****   return bitstatus;
 202              		.loc 1 166 3 is_stmt 1 view .LVU32
 167:./lib/src/at32f4xx_iwdg.c **** }
 203              		.loc 1 167 1 is_stmt 0 view .LVU33
 204 000e 7047     		bx	lr
 205              	.L20:
 206              		.align	2
 207              	.L19:
 208 0010 00300040 		.word	1073754112
 209              		.cfi_endproc
 210              	.LFE128:
 212              		.text
 213              	.Letext0:
 214              		.file 2 "/usr/lib/gcc/arm-none-eabi/10.3.1/include/stdint.h"
 215              		.file 3 "CMSIS/at32f4xx.h"
ARM GAS  /tmp/cc6rPQl7.s 			page 8

