ARM GAS  /tmp/ccYvNz9y.s 			page 1


   1              		.cpu cortex-m4
   2              		.eabi_attribute 27, 1
   3              		.eabi_attribute 28, 1
   4              		.eabi_attribute 20, 1
   5              		.eabi_attribute 21, 1
   6              		.eabi_attribute 23, 3
   7              		.eabi_attribute 24, 1
   8              		.eabi_attribute 25, 1
   9              		.eabi_attribute 26, 1
  10              		.eabi_attribute 30, 1
  11              		.eabi_attribute 34, 1
  12              		.eabi_attribute 18, 4
  13              		.file	"bmp280.c"
  14              		.text
  15              	.Ltext0:
  16              		.cfi_sections	.debug_frame
  17              		.section	.text.BMP280_CompensateTemp,"ax",%progbits
  18              		.align	1
  19              		.arch armv7e-m
  20              		.syntax unified
  21              		.thumb
  22              		.thumb_func
  23              		.fpu fpv4-sp-d16
  25              	BMP280_CompensateTemp:
  26              	.LVL0:
  27              	.LFB125:
  28              		.file 1 "./dev/bmp280/bmp280.c"
   1:./dev/bmp280/bmp280.c **** #include "bmp280.h"
   2:./dev/bmp280/bmp280.c **** //#include "math.h"
   3:./dev/bmp280/bmp280.c **** 
   4:./dev/bmp280/bmp280.c **** 
   5:./dev/bmp280/bmp280.c **** /****************************************************************************************
   6:./dev/bmp280/bmp280.c **** 本文件代码参考自betaFlight
   7:./dev/bmp280/bmp280.c **** github网址 https://github.com/betaflight/betaflight
   8:./dev/bmp280/bmp280.c **** ****************************************************************************************/
   9:./dev/bmp280/bmp280.c **** 
  10:./dev/bmp280/bmp280.c **** 
  11:./dev/bmp280/bmp280.c **** 
  12:./dev/bmp280/bmp280.c **** #define BMP280_DEFAULT_CHIP_ID			(0x58)
  13:./dev/bmp280/bmp280.c **** 
  14:./dev/bmp280/bmp280.c **** #define BMP280_CHIP_ID					(0xD0)  /* Chip ID Register */
  15:./dev/bmp280/bmp280.c **** #define BMP280_RST_REG					(0xE0)  /* Softreset Register */
  16:./dev/bmp280/bmp280.c **** #define BMP280_STAT_REG					(0xF3)  /* Status Register */
  17:./dev/bmp280/bmp280.c **** #define BMP280_CTRL_MEAS_REG			(0xF4)  /* Ctrl Measure Register */
  18:./dev/bmp280/bmp280.c **** #define BMP280_CONFIG_REG				(0xF5)  /* Configuration Register */
  19:./dev/bmp280/bmp280.c **** #define BMP280_PRESSURE_MSB_REG			(0xF7)  /* Pressure MSB Register */
  20:./dev/bmp280/bmp280.c **** #define BMP280_PRESSURE_LSB_REG			(0xF8)  /* Pressure LSB Register */
  21:./dev/bmp280/bmp280.c **** #define BMP280_PRESSURE_XLSB_REG		(0xF9)  /* Pressure XLSB Register */
  22:./dev/bmp280/bmp280.c **** #define BMP280_TEMPERATURE_MSB_REG		(0xFA)  /* Temperature MSB Reg */
  23:./dev/bmp280/bmp280.c **** #define BMP280_TEMPERATURE_LSB_REG		(0xFB)  /* Temperature LSB Reg */
  24:./dev/bmp280/bmp280.c **** #define BMP280_TEMPERATURE_XLSB_REG		(0xFC)  /* Temperature XLSB Reg */
  25:./dev/bmp280/bmp280.c **** 
  26:./dev/bmp280/bmp280.c **** 
  27:./dev/bmp280/bmp280.c **** #define BMP280_TEMPERATURE_CALIB_DIG_T1_LSB_REG             (0x88)
  28:./dev/bmp280/bmp280.c **** #define BMP280_PRESSURE_TEMPERATURE_CALIB_DATA_LENGTH       (24)
  29:./dev/bmp280/bmp280.c **** 
  30:./dev/bmp280/bmp280.c **** #define BMP280_OVERSAMP_SKIPPED         (0x00)
ARM GAS  /tmp/ccYvNz9y.s 			page 2


  31:./dev/bmp280/bmp280.c **** #define BMP280_OVERSAMP_1X              (0x01)
  32:./dev/bmp280/bmp280.c **** #define BMP280_OVERSAMP_2X              (0x02)
  33:./dev/bmp280/bmp280.c **** #define BMP280_OVERSAMP_4X              (0x03)
  34:./dev/bmp280/bmp280.c **** #define BMP280_OVERSAMP_8X              (0x04)
  35:./dev/bmp280/bmp280.c **** #define BMP280_OVERSAMP_16X             (0x05)
  36:./dev/bmp280/bmp280.c **** 
  37:./dev/bmp280/bmp280.c **** #define BMP280_FILTER_COEFF_OFF         (0x00)
  38:./dev/bmp280/bmp280.c **** #define BMP280_FILTER_COEFF_2           (0x01)
  39:./dev/bmp280/bmp280.c **** #define BMP280_FILTER_COEFF_4           (0x02)
  40:./dev/bmp280/bmp280.c **** #define BMP280_FILTER_COEFF_8           (0x03)
  41:./dev/bmp280/bmp280.c **** #define BMP280_FILTER_COEFF_16          (0x04)
  42:./dev/bmp280/bmp280.c **** 
  43:./dev/bmp280/bmp280.c **** #define BMP280_FORCED_MODE             	(0x01)
  44:./dev/bmp280/bmp280.c **** #define BMP280_NORMAL_MODE				(0x03)
  45:./dev/bmp280/bmp280.c **** 
  46:./dev/bmp280/bmp280.c **** 
  47:./dev/bmp280/bmp280.c **** 
  48:./dev/bmp280/bmp280.c **** 
  49:./dev/bmp280/bmp280.c **** //配置bmp气压计 气压和温度过采样
  50:./dev/bmp280/bmp280.c **** #define BMP280_PRESSURE_OSR         (BMP280_OVERSAMP_4X)
  51:./dev/bmp280/bmp280.c **** #define BMP280_TEMPERATURE_OSR      (BMP280_OVERSAMP_1X)
  52:./dev/bmp280/bmp280.c **** #define BMP280_MODE                 (BMP280_PRESSURE_OSR << 2 | BMP280_TEMPERATURE_OSR << 5 | BMP28
  53:./dev/bmp280/bmp280.c **** 
  54:./dev/bmp280/bmp280.c **** 
  55:./dev/bmp280/bmp280.c **** //配置bmp280  iir滤波器
  56:./dev/bmp280/bmp280.c **** //#define BMP280_FILTER               (4 << 2)
  57:./dev/bmp280/bmp280.c **** #define BMP280_FILTER               (4 << 2)
  58:./dev/bmp280/bmp280.c **** 
  59:./dev/bmp280/bmp280.c **** 
  60:./dev/bmp280/bmp280.c **** 
  61:./dev/bmp280/bmp280.c **** static void BMP280_Delay(void)
  62:./dev/bmp280/bmp280.c **** {
  63:./dev/bmp280/bmp280.c **** 	uint32_t i = 10000000;
  64:./dev/bmp280/bmp280.c **** 	while(--i);
  65:./dev/bmp280/bmp280.c **** }
  66:./dev/bmp280/bmp280.c **** 
  67:./dev/bmp280/bmp280.c **** 
  68:./dev/bmp280/bmp280.c **** 
  69:./dev/bmp280/bmp280.c **** E_BMP280_ERROR BMP280_Init(BMP280_t * bmp280)
  70:./dev/bmp280/bmp280.c **** {
  71:./dev/bmp280/bmp280.c **** 	uint8_t count = 0;
  72:./dev/bmp280/bmp280.c **** 	uint8_t readData = 0;
  73:./dev/bmp280/bmp280.c **** 	uint8_t writeData = 0;
  74:./dev/bmp280/bmp280.c **** 
  75:./dev/bmp280/bmp280.c **** 	if((NULL == bmp280)
  76:./dev/bmp280/bmp280.c **** 		|| (NULL == bmp280->I2CWriteReg)
  77:./dev/bmp280/bmp280.c **** 		|| (NULL == bmp280->I2CReadReg)
  78:./dev/bmp280/bmp280.c **** 	)
  79:./dev/bmp280/bmp280.c **** 	{
  80:./dev/bmp280/bmp280.c **** 		return E_BMP280_ERROR_NULL;
  81:./dev/bmp280/bmp280.c **** 	}
  82:./dev/bmp280/bmp280.c **** 
  83:./dev/bmp280/bmp280.c **** 	writeData = 0xb6;
  84:./dev/bmp280/bmp280.c **** 	bmp280->I2CWriteReg(bmp280->DevAddr, BMP280_RST_REG, &writeData, 1);
  85:./dev/bmp280/bmp280.c **** 
  86:./dev/bmp280/bmp280.c **** 
  87:./dev/bmp280/bmp280.c **** 	do
ARM GAS  /tmp/ccYvNz9y.s 			page 3


  88:./dev/bmp280/bmp280.c **** 	{
  89:./dev/bmp280/bmp280.c **** 		BMP280_Delay();
  90:./dev/bmp280/bmp280.c **** 		bmp280->I2CReadReg(bmp280->DevAddr, BMP280_CHIP_ID, &readData, 1);
  91:./dev/bmp280/bmp280.c **** 	}
  92:./dev/bmp280/bmp280.c **** 	while(readData != BMP280_DEFAULT_CHIP_ID);
  93:./dev/bmp280/bmp280.c **** 	
  94:./dev/bmp280/bmp280.c **** 
  95:./dev/bmp280/bmp280.c **** 	bmp280->I2CReadReg(bmp280->DevAddr, BMP280_TEMPERATURE_CALIB_DIG_T1_LSB_REG, (uint8_t *)&bmp280->C
  96:./dev/bmp280/bmp280.c **** 
  97:./dev/bmp280/bmp280.c **** 	writeData = BMP280_MODE;
  98:./dev/bmp280/bmp280.c **** 	bmp280->I2CWriteReg(bmp280->DevAddr, BMP280_CTRL_MEAS_REG, &writeData, 1);
  99:./dev/bmp280/bmp280.c **** 
 100:./dev/bmp280/bmp280.c **** 	writeData = BMP280_FILTER;
 101:./dev/bmp280/bmp280.c **** 	bmp280->I2CWriteReg(bmp280->DevAddr, BMP280_CONFIG_REG, &writeData, 1);
 102:./dev/bmp280/bmp280.c **** 
 103:./dev/bmp280/bmp280.c **** 	return  E_BMP280_ERROR_OK;
 104:./dev/bmp280/bmp280.c **** }
 105:./dev/bmp280/bmp280.c **** 
 106:./dev/bmp280/bmp280.c **** 
 107:./dev/bmp280/bmp280.c **** 
 108:./dev/bmp280/bmp280.c **** static uint32_t BMP280_CompensateTemp(BMP280_t * bmp280, int32_t temp)
 109:./dev/bmp280/bmp280.c **** {
  29              		.loc 1 109 1 view -0
  30              		.cfi_startproc
  31              		@ args = 0, pretend = 0, frame = 0
  32              		@ frame_needed = 0, uses_anonymous_args = 0
  33              		@ link register save eliminated.
 110:./dev/bmp280/bmp280.c ****     int32_t var1, var2, T;
  34              		.loc 1 110 5 view .LVU1
 111:./dev/bmp280/bmp280.c **** 
 112:./dev/bmp280/bmp280.c ****     var1 = ((((temp >> 3) - ((int32_t)bmp280->Calib.T1 << 1))) * ((int32_t)bmp280->Calib.T2)) >> 11
  35              		.loc 1 112 5 view .LVU2
  36              		.loc 1 112 52 is_stmt 0 view .LVU3
  37 0000 8289     		ldrh	r2, [r0, #12]
  38              		.loc 1 112 56 view .LVU4
  39 0002 5300     		lsls	r3, r2, #1
  40              		.loc 1 112 27 view .LVU5
  41 0004 C3EBE103 		rsb	r3, r3, r1, asr #3
  42              		.loc 1 112 89 view .LVU6
  43 0008 B0F90EC0 		ldrsh	ip, [r0, #14]
  44              		.loc 1 112 64 view .LVU7
  45 000c 0CFB03FC 		mul	ip, ip, r3
  46              	.LVL1:
 113:./dev/bmp280/bmp280.c ****     var2  = (((((temp >> 4) - ((int32_t)bmp280->Calib.T1)) * ((temp >> 4) - ((int32_t)bmp280->Calib
  47              		.loc 1 113 5 is_stmt 1 view .LVU8
  48              		.loc 1 113 29 is_stmt 0 view .LVU9
  49 0010 C2EB2111 		rsb	r1, r2, r1, asr #4
  50              	.LVL2:
  51              		.loc 1 113 60 view .LVU10
  52 0014 01FB01F3 		mul	r3, r1, r1
  53              		.loc 1 113 107 view .LVU11
  54 0018 1B13     		asrs	r3, r3, #12
  55              		.loc 1 113 139 view .LVU12
  56 001a B0F91010 		ldrsh	r1, [r0, #16]
  57              		.loc 1 113 114 view .LVU13
  58 001e 01FB03F3 		mul	r3, r1, r3
  59              		.loc 1 113 11 view .LVU14
ARM GAS  /tmp/ccYvNz9y.s 			page 4


  60 0022 9B13     		asrs	r3, r3, #14
  61              	.LVL3:
 114:./dev/bmp280/bmp280.c ****     bmp280->Calib.TFine = var1 + var2;
  62              		.loc 1 114 5 is_stmt 1 view .LVU15
  63              		.loc 1 114 32 is_stmt 0 view .LVU16
  64 0024 03EBEC23 		add	r3, r3, ip, asr #11
  65              	.LVL4:
  66              		.loc 1 114 25 view .LVU17
  67 0028 4362     		str	r3, [r0, #36]
 115:./dev/bmp280/bmp280.c ****     T = (bmp280->Calib.TFine * 5 + 128) >> 8;
  68              		.loc 1 115 5 is_stmt 1 view .LVU18
  69              		.loc 1 115 30 is_stmt 0 view .LVU19
  70 002a 03EB8303 		add	r3, r3, r3, lsl #2
  71              		.loc 1 115 34 view .LVU20
  72 002e 03F18000 		add	r0, r3, #128
  73              	.LVL5:
 116:./dev/bmp280/bmp280.c **** 
 117:./dev/bmp280/bmp280.c ****     return T;
  74              		.loc 1 117 5 is_stmt 1 view .LVU21
 118:./dev/bmp280/bmp280.c **** }
  75              		.loc 1 118 1 is_stmt 0 view .LVU22
  76 0032 0012     		asrs	r0, r0, #8
  77              	.LVL6:
  78              		.loc 1 118 1 view .LVU23
  79 0034 7047     		bx	lr
  80              		.cfi_endproc
  81              	.LFE125:
  83              		.global	__aeabi_ldivmod
  84              		.section	.text.BMP280_CompensatePressure,"ax",%progbits
  85              		.align	1
  86              		.syntax unified
  87              		.thumb
  88              		.thumb_func
  89              		.fpu fpv4-sp-d16
  91              	BMP280_CompensatePressure:
  92              	.LVL7:
  93              	.LFB126:
 119:./dev/bmp280/bmp280.c **** 
 120:./dev/bmp280/bmp280.c **** 
 121:./dev/bmp280/bmp280.c **** static uint32_t BMP280_CompensatePressure(BMP280_t * bmp280, int32_t pressure_value)
 122:./dev/bmp280/bmp280.c **** {
  94              		.loc 1 122 1 is_stmt 1 view -0
  95              		.cfi_startproc
  96              		@ args = 0, pretend = 0, frame = 0
  97              		@ frame_needed = 0, uses_anonymous_args = 0
  98              		.loc 1 122 1 is_stmt 0 view .LVU25
  99 0000 2DE9F041 		push	{r4, r5, r6, r7, r8, lr}
 100              	.LCFI0:
 101              		.cfi_def_cfa_offset 24
 102              		.cfi_offset 4, -24
 103              		.cfi_offset 5, -20
 104              		.cfi_offset 6, -16
 105              		.cfi_offset 7, -12
 106              		.cfi_offset 8, -8
 107              		.cfi_offset 14, -4
 108 0004 0446     		mov	r4, r0
 123:./dev/bmp280/bmp280.c ****     int64_t var1, var2, p;
ARM GAS  /tmp/ccYvNz9y.s 			page 5


 109              		.loc 1 123 5 is_stmt 1 view .LVU26
 124:./dev/bmp280/bmp280.c **** 	
 125:./dev/bmp280/bmp280.c ****     var1 = ((int64_t)bmp280->Calib.TFine) - 128000;
 110              		.loc 1 125 5 view .LVU27
 111              		.loc 1 125 35 is_stmt 0 view .LVU28
 112 0006 436A     		ldr	r3, [r0, #36]
 113              		.loc 1 125 13 view .LVU29
 114 0008 DA17     		asrs	r2, r3, #31
 115              		.loc 1 125 10 view .LVU30
 116 000a B3F5FA3C 		subs	ip, r3, #128000
 117 000e 42F1FF32 		adc	r2, r2, #-1
 118              	.LVL8:
 126:./dev/bmp280/bmp280.c ****     var2 = var1 * var1 * (int64_t)bmp280->Calib.P6;
 119              		.loc 1 126 5 is_stmt 1 view .LVU31
 120              		.loc 1 126 17 is_stmt 0 view .LVU32
 121 0012 0CFB02F7 		mul	r7, ip, r2
 122 0016 ACFB0C08 		umull	r0, r8, ip, ip
 123              	.LVL9:
 124              		.loc 1 126 17 view .LVU33
 125 001a 08EB4708 		add	r8, r8, r7, lsl #1
 126              		.loc 1 126 48 view .LVU34
 127 001e B4F91CE0 		ldrsh	lr, [r4, #28]
 128              		.loc 1 126 26 view .LVU35
 129 0022 4FEAEE75 		asr	r5, lr, #31
 130              		.loc 1 126 10 view .LVU36
 131 0026 00FB05F5 		mul	r5, r0, r5
 132 002a 0EFB0855 		mla	r5, lr, r8, r5
 133 002e A0FB0E3E 		umull	r3, lr, r0, lr
 134 0032 7544     		add	r5, r5, lr
 135              	.LVL10:
 127:./dev/bmp280/bmp280.c ****     var2 = var2 + ((var1*(int64_t)bmp280->Calib.P5) << 17);
 136              		.loc 1 127 5 is_stmt 1 view .LVU37
 137              		.loc 1 127 48 is_stmt 0 view .LVU38
 138 0034 B4F91AE0 		ldrsh	lr, [r4, #26]
 139              		.loc 1 127 26 view .LVU39
 140 0038 4FEAEE77 		asr	r7, lr, #31
 141              		.loc 1 127 25 view .LVU40
 142 003c 0EFB02F6 		mul	r6, lr, r2
 143 0040 0CFB0766 		mla	r6, ip, r7, r6
 144 0044 AEFB0CE7 		umull	lr, r7, lr, ip
 145 0048 3E44     		add	r6, r6, r7
 146              		.loc 1 127 53 view .LVU41
 147 004a 7604     		lsls	r6, r6, #17
 148 004c 46EADE36 		orr	r6, r6, lr, lsr #15
 149 0050 4FEA4E4E 		lsl	lr, lr, #17
 150              		.loc 1 127 10 view .LVU42
 151 0054 1EEB030E 		adds	lr, lr, r3
 152 0058 45EB0605 		adc	r5, r5, r6
 153              	.LVL11:
 128:./dev/bmp280/bmp280.c ****     var2 = var2 + (((int64_t)bmp280->Calib.P4) << 35);
 154              		.loc 1 128 5 is_stmt 1 view .LVU43
 155              		.loc 1 128 43 is_stmt 0 view .LVU44
 156 005c B4F91830 		ldrsh	r3, [r4, #24]
 157              		.loc 1 128 10 view .LVU45
 158 0060 05EBC305 		add	r5, r5, r3, lsl #3
 159              	.LVL12:
 129:./dev/bmp280/bmp280.c ****     var1 = ((var1 * var1 * (int64_t)bmp280->Calib.P3) >> 8) + ((var1 * (int64_t)bmp280->Calib.P2) <
ARM GAS  /tmp/ccYvNz9y.s 			page 6


 160              		.loc 1 129 5 is_stmt 1 view .LVU46
 161              		.loc 1 129 50 is_stmt 0 view .LVU47
 162 0064 B4F91660 		ldrsh	r6, [r4, #22]
 163              		.loc 1 129 28 view .LVU48
 164 0068 F317     		asrs	r3, r6, #31
 165              		.loc 1 129 26 view .LVU49
 166 006a 00FB03F3 		mul	r3, r0, r3
 167 006e 06FB0833 		mla	r3, r6, r8, r3
 168 0072 A0FB0606 		umull	r0, r6, r0, r6
 169 0076 9F19     		adds	r7, r3, r6
 170              		.loc 1 129 55 view .LVU50
 171 0078 000A     		lsrs	r0, r0, #8
 172 007a 40EA0760 		orr	r0, r0, r7, lsl #24
 173              		.loc 1 129 94 view .LVU51
 174 007e B4F91460 		ldrsh	r6, [r4, #20]
 175              		.loc 1 129 72 view .LVU52
 176 0082 F317     		asrs	r3, r6, #31
 177              		.loc 1 129 70 view .LVU53
 178 0084 06FB02F2 		mul	r2, r6, r2
 179              	.LVL13:
 180              		.loc 1 129 70 view .LVU54
 181 0088 0CFB0323 		mla	r3, ip, r3, r2
 182 008c A6FB0C6C 		umull	r6, ip, r6, ip
 183              	.LVL14:
 184              		.loc 1 129 70 view .LVU55
 185 0090 6344     		add	r3, r3, ip
 186              		.loc 1 129 99 view .LVU56
 187 0092 1B03     		lsls	r3, r3, #12
 188 0094 43EA1653 		orr	r3, r3, r6, lsr #20
 189 0098 4FEA063C 		lsl	ip, r6, #12
 190              		.loc 1 129 10 view .LVU57
 191 009c 10EB0C0C 		adds	ip, r0, ip
 192 00a0 43EB2723 		adc	r3, r3, r7, asr #8
 193              	.LVL15:
 130:./dev/bmp280/bmp280.c ****     var1 = (((((int64_t)1) << 47) + var1)) * ((int64_t)bmp280->Calib.P1) >> 33;
 194              		.loc 1 130 5 is_stmt 1 view .LVU58
 195              		.loc 1 130 35 is_stmt 0 view .LVU59
 196 00a4 03F50043 		add	r3, r3, #32768
 197              	.LVL16:
 198              		.loc 1 130 69 view .LVU60
 199 00a8 628A     		ldrh	r2, [r4, #18]
 200              		.loc 1 130 44 view .LVU61
 201 00aa ACFB02C0 		umull	ip, r0, ip, r2
 202              	.LVL17:
 203              		.loc 1 130 44 view .LVU62
 204 00ae 02FB030C 		mla	ip, r2, r3, r0
 205              		.loc 1 130 10 view .LVU63
 206 00b2 4FEAEC73 		asr	r3, ip, #31
 207              	.LVL18:
 131:./dev/bmp280/bmp280.c ****     if (var1 == 0)
 208              		.loc 1 131 5 is_stmt 1 view .LVU64
 209              		.loc 1 131 8 is_stmt 0 view .LVU65
 210 00b6 53EA6C00 		orrs	r0, r3, ip, asr #1
 211 00ba 65D0     		beq	.L4
 212 00bc 4FEA6C02 		asr	r2, ip, #1
 213              	.LVL19:
 132:./dev/bmp280/bmp280.c ****         return 0;
ARM GAS  /tmp/ccYvNz9y.s 			page 7


 133:./dev/bmp280/bmp280.c ****     p = 1048576 - pressure_value;
 214              		.loc 1 133 5 is_stmt 1 view .LVU66
 215              		.loc 1 133 17 is_stmt 0 view .LVU67
 216 00c0 C1F58011 		rsb	r1, r1, #1048576
 217              	.LVL20:
 134:./dev/bmp280/bmp280.c ****     p = (((p << 31) - var2) * 3125) / var1;
 218              		.loc 1 134 5 is_stmt 1 view .LVU68
 219              		.loc 1 134 14 is_stmt 0 view .LVU69
 220 00c4 4E10     		asrs	r6, r1, #1
 221 00c6 C807     		lsls	r0, r1, #31
 222              		.loc 1 134 21 view .LVU70
 223 00c8 B0EB0E0E 		subs	lr, r0, lr
 224              	.LVL21:
 225              		.loc 1 134 21 view .LVU71
 226 00cc 66EB0505 		sbc	r5, r6, r5
 227              	.LVL22:
 228              		.loc 1 134 29 view .LVU72
 229 00d0 1EEB0E0C 		adds	ip, lr, lr
 230 00d4 45EB0501 		adc	r1, r5, r5
 231              	.LVL23:
 232              		.loc 1 134 29 view .LVU73
 233 00d8 1CEB0E0C 		adds	ip, ip, lr
 234 00dc 45EB0101 		adc	r1, r5, r1
 235 00e0 8E01     		lsls	r6, r1, #6
 236 00e2 46EA9C66 		orr	r6, r6, ip, lsr #26
 237 00e6 4FEA8C10 		lsl	r0, ip, #6
 238 00ea 1CEB000C 		adds	ip, ip, r0
 239 00ee 41EB0601 		adc	r1, r1, r6
 240 00f2 8900     		lsls	r1, r1, #2
 241 00f4 41EA9C71 		orr	r1, r1, ip, lsr #30
 242 00f8 4FEA8C0C 		lsl	ip, ip, #2
 243 00fc 1CEB0E0C 		adds	ip, ip, lr
 244 0100 45EB0101 		adc	r1, r5, r1
 245 0104 8900     		lsls	r1, r1, #2
 246 0106 41EA9C71 		orr	r1, r1, ip, lsr #30
 247 010a 4FEA8C00 		lsl	r0, ip, #2
 248 010e 10EB0E00 		adds	r0, r0, lr
 249              		.loc 1 134 7 view .LVU74
 250 0112 45EB0101 		adc	r1, r5, r1
 251 0116 FFF7FEFF 		bl	__aeabi_ldivmod
 252              	.LVL24:
 253              		.loc 1 134 7 view .LVU75
 254 011a 0346     		mov	r3, r0
 255              	.LVL25:
 135:./dev/bmp280/bmp280.c ****     var1 = (((int64_t)bmp280->Calib.P9) * (p >> 13) * (p >> 13)) >> 25;
 256              		.loc 1 135 5 is_stmt 1 view .LVU76
 257              		.loc 1 135 36 is_stmt 0 view .LVU77
 258 011c B4F92260 		ldrsh	r6, [r4, #34]
 259              		.loc 1 135 14 view .LVU78
 260 0120 4FEAE67C 		asr	ip, r6, #31
 261              		.loc 1 135 46 view .LVU79
 262 0124 420B     		lsrs	r2, r0, #13
 263 0126 42EAC142 		orr	r2, r2, r1, lsl #19
 264 012a 4F13     		asrs	r7, r1, #13
 265              		.loc 1 135 41 view .LVU80
 266 012c 06FB07F5 		mul	r5, r6, r7
 267 0130 02FB0C55 		mla	r5, r2, ip, r5
ARM GAS  /tmp/ccYvNz9y.s 			page 8


 268 0134 A6FB026C 		umull	r6, ip, r6, r2
 269 0138 6544     		add	r5, r5, ip
 270              		.loc 1 135 53 view .LVU81
 271 013a 02FB05F5 		mul	r5, r2, r5
 272 013e 06FB0755 		mla	r5, r6, r7, r5
 273 0142 A2FB0626 		umull	r2, r6, r2, r6
 274 0146 3544     		add	r5, r5, r6
 275              		.loc 1 135 10 view .LVU82
 276 0148 520E     		lsrs	r2, r2, #25
 277 014a 42EAC512 		orr	r2, r2, r5, lsl #7
 278              	.LVL26:
 136:./dev/bmp280/bmp280.c ****     var2 = (((int64_t)bmp280->Calib.P8) * p) >> 19;
 279              		.loc 1 136 5 is_stmt 1 view .LVU83
 280              		.loc 1 136 36 is_stmt 0 view .LVU84
 281 014e B4F92060 		ldrsh	r6, [r4, #32]
 282              		.loc 1 136 14 view .LVU85
 283 0152 4FEAE67C 		asr	ip, r6, #31
 284              		.loc 1 136 41 view .LVU86
 285 0156 06FB01F7 		mul	r7, r6, r1
 286 015a 0CFB0077 		mla	r7, ip, r0, r7
 287 015e A6FB0006 		umull	r0, r6, r6, r0
 288              	.LVL27:
 289              		.loc 1 136 41 view .LVU87
 290 0162 3E44     		add	r6, r6, r7
 291              		.loc 1 136 10 view .LVU88
 292 0164 C00C     		lsrs	r0, r0, #19
 293 0166 40EA4630 		orr	r0, r0, r6, lsl #13
 294              	.LVL28:
 137:./dev/bmp280/bmp280.c ****     p = ((p + var1 + var2) >> 8) + (((int64_t)bmp280->Calib.P7) << 4);
 295              		.loc 1 137 5 is_stmt 1 view .LVU89
 296              		.loc 1 137 13 is_stmt 0 view .LVU90
 297 016a 9B18     		adds	r3, r3, r2
 298              	.LVL29:
 299              		.loc 1 137 13 view .LVU91
 300 016c 41EB6561 		adc	r1, r1, r5, asr #25
 301              		.loc 1 137 20 view .LVU92
 302 0170 1B18     		adds	r3, r3, r0
 303 0172 41EBE641 		adc	r1, r1, r6, asr #19
 304              		.loc 1 137 28 view .LVU93
 305 0176 180A     		lsrs	r0, r3, #8
 306              	.LVL30:
 307              		.loc 1 137 28 view .LVU94
 308 0178 40EA0160 		orr	r0, r0, r1, lsl #24
 309              		.loc 1 137 60 view .LVU95
 310 017c B4F91E30 		ldrsh	r3, [r4, #30]
 311              	.LVL31:
 138:./dev/bmp280/bmp280.c **** 	
 139:./dev/bmp280/bmp280.c ****     return (uint32_t)p;
 312              		.loc 1 139 5 is_stmt 1 view .LVU96
 313              		.loc 1 139 12 is_stmt 0 view .LVU97
 314 0180 00EB0310 		add	r0, r0, r3, lsl #4
 315              	.LVL32:
 316              	.L2:
 140:./dev/bmp280/bmp280.c **** }
 317              		.loc 1 140 1 view .LVU98
 318 0184 BDE8F081 		pop	{r4, r5, r6, r7, r8, pc}
 319              	.LVL33:
ARM GAS  /tmp/ccYvNz9y.s 			page 9


 320              	.L4:
 132:./dev/bmp280/bmp280.c ****     p = 1048576 - pressure_value;
 321              		.loc 1 132 16 view .LVU99
 322 0188 0020     		movs	r0, #0
 323 018a FBE7     		b	.L2
 324              		.cfi_endproc
 325              	.LFE126:
 327              		.section	.text.BMP280_Init,"ax",%progbits
 328              		.align	1
 329              		.global	BMP280_Init
 330              		.syntax unified
 331              		.thumb
 332              		.thumb_func
 333              		.fpu fpv4-sp-d16
 335              	BMP280_Init:
 336              	.LVL34:
 337              	.LFB124:
  70:./dev/bmp280/bmp280.c **** 	uint8_t count = 0;
 338              		.loc 1 70 1 is_stmt 1 view -0
 339              		.cfi_startproc
 340              		@ args = 0, pretend = 0, frame = 8
 341              		@ frame_needed = 0, uses_anonymous_args = 0
  70:./dev/bmp280/bmp280.c **** 	uint8_t count = 0;
 342              		.loc 1 70 1 is_stmt 0 view .LVU101
 343 0000 30B5     		push	{r4, r5, lr}
 344              	.LCFI1:
 345              		.cfi_def_cfa_offset 12
 346              		.cfi_offset 4, -12
 347              		.cfi_offset 5, -8
 348              		.cfi_offset 14, -4
 349 0002 83B0     		sub	sp, sp, #12
 350              	.LCFI2:
 351              		.cfi_def_cfa_offset 24
  71:./dev/bmp280/bmp280.c **** 	uint8_t readData = 0;
 352              		.loc 1 71 2 is_stmt 1 view .LVU102
 353              	.LVL35:
  72:./dev/bmp280/bmp280.c **** 	uint8_t writeData = 0;
 354              		.loc 1 72 2 view .LVU103
  72:./dev/bmp280/bmp280.c **** 	uint8_t writeData = 0;
 355              		.loc 1 72 10 is_stmt 0 view .LVU104
 356 0004 0023     		movs	r3, #0
 357 0006 8DF80730 		strb	r3, [sp, #7]
  73:./dev/bmp280/bmp280.c **** 
 358              		.loc 1 73 2 is_stmt 1 view .LVU105
  73:./dev/bmp280/bmp280.c **** 
 359              		.loc 1 73 10 is_stmt 0 view .LVU106
 360 000a 8DF80630 		strb	r3, [sp, #6]
  75:./dev/bmp280/bmp280.c **** 		|| (NULL == bmp280->I2CWriteReg)
 361              		.loc 1 75 2 is_stmt 1 view .LVU107
  75:./dev/bmp280/bmp280.c **** 		|| (NULL == bmp280->I2CWriteReg)
 362              		.loc 1 75 4 is_stmt 0 view .LVU108
 363 000e 0028     		cmp	r0, #0
 364 0010 38D0     		beq	.L9
 365 0012 0446     		mov	r4, r0
  76:./dev/bmp280/bmp280.c **** 		|| (NULL == bmp280->I2CReadReg)
 366              		.loc 1 76 21 view .LVU109
 367 0014 4568     		ldr	r5, [r0, #4]
ARM GAS  /tmp/ccYvNz9y.s 			page 10


  76:./dev/bmp280/bmp280.c **** 		|| (NULL == bmp280->I2CReadReg)
 368              		.loc 1 76 3 view .LVU110
 369 0016 002D     		cmp	r5, #0
 370 0018 36D0     		beq	.L10
  77:./dev/bmp280/bmp280.c **** 	)
 371              		.loc 1 77 21 view .LVU111
 372 001a 8368     		ldr	r3, [r0, #8]
  77:./dev/bmp280/bmp280.c **** 	)
 373              		.loc 1 77 3 view .LVU112
 374 001c 002B     		cmp	r3, #0
 375 001e 35D0     		beq	.L11
  83:./dev/bmp280/bmp280.c **** 	bmp280->I2CWriteReg(bmp280->DevAddr, BMP280_RST_REG, &writeData, 1);
 376              		.loc 1 83 2 is_stmt 1 view .LVU113
  83:./dev/bmp280/bmp280.c **** 	bmp280->I2CWriteReg(bmp280->DevAddr, BMP280_RST_REG, &writeData, 1);
 377              		.loc 1 83 12 is_stmt 0 view .LVU114
 378 0020 B623     		movs	r3, #182
 379 0022 8DF80630 		strb	r3, [sp, #6]
  84:./dev/bmp280/bmp280.c **** 
 380              		.loc 1 84 2 is_stmt 1 view .LVU115
 381 0026 0123     		movs	r3, #1
 382 0028 0DF10602 		add	r2, sp, #6
 383 002c E021     		movs	r1, #224
 384 002e 0078     		ldrb	r0, [r0]	@ zero_extendqisi2
 385              	.LVL36:
  84:./dev/bmp280/bmp280.c **** 
 386              		.loc 1 84 2 is_stmt 0 view .LVU116
 387 0030 A847     		blx	r5
 388              	.LVL37:
 389              	.L8:
  87:./dev/bmp280/bmp280.c **** 	{
 390              		.loc 1 87 2 is_stmt 1 discriminator 1 view .LVU117
  89:./dev/bmp280/bmp280.c **** 		bmp280->I2CReadReg(bmp280->DevAddr, BMP280_CHIP_ID, &readData, 1);
 391              		.loc 1 89 3 discriminator 1 view .LVU118
  90:./dev/bmp280/bmp280.c **** 	}
 392              		.loc 1 90 3 discriminator 1 view .LVU119
 393 0032 0123     		movs	r3, #1
 394 0034 0DF10702 		add	r2, sp, #7
 395 0038 D021     		movs	r1, #208
 396 003a 2078     		ldrb	r0, [r4]	@ zero_extendqisi2
 397 003c A568     		ldr	r5, [r4, #8]
 398 003e A847     		blx	r5
 399              	.LVL38:
  92:./dev/bmp280/bmp280.c **** 	
 400              		.loc 1 92 7 discriminator 1 view .LVU120
  92:./dev/bmp280/bmp280.c **** 	
 401              		.loc 1 92 17 is_stmt 0 discriminator 1 view .LVU121
 402 0040 9DF80730 		ldrb	r3, [sp, #7]	@ zero_extendqisi2
  92:./dev/bmp280/bmp280.c **** 	
 403              		.loc 1 92 2 discriminator 1 view .LVU122
 404 0044 582B     		cmp	r3, #88
 405 0046 F4D1     		bne	.L8
  95:./dev/bmp280/bmp280.c **** 
 406              		.loc 1 95 2 is_stmt 1 view .LVU123
  95:./dev/bmp280/bmp280.c **** 
 407              		.loc 1 95 8 is_stmt 0 view .LVU124
 408 0048 A568     		ldr	r5, [r4, #8]
  95:./dev/bmp280/bmp280.c **** 
ARM GAS  /tmp/ccYvNz9y.s 			page 11


 409              		.loc 1 95 90 view .LVU125
 410 004a 2246     		mov	r2, r4
  95:./dev/bmp280/bmp280.c **** 
 411              		.loc 1 95 2 view .LVU126
 412 004c 12F80C0B 		ldrb	r0, [r2], #12	@ zero_extendqisi2
 413 0050 1823     		movs	r3, #24
 414 0052 8821     		movs	r1, #136
 415 0054 A847     		blx	r5
 416              	.LVL39:
  97:./dev/bmp280/bmp280.c **** 	bmp280->I2CWriteReg(bmp280->DevAddr, BMP280_CTRL_MEAS_REG, &writeData, 1);
 417              		.loc 1 97 2 is_stmt 1 view .LVU127
  97:./dev/bmp280/bmp280.c **** 	bmp280->I2CWriteReg(bmp280->DevAddr, BMP280_CTRL_MEAS_REG, &writeData, 1);
 418              		.loc 1 97 12 is_stmt 0 view .LVU128
 419 0056 2D23     		movs	r3, #45
 420 0058 8DF80630 		strb	r3, [sp, #6]
  98:./dev/bmp280/bmp280.c **** 
 421              		.loc 1 98 2 is_stmt 1 view .LVU129
  98:./dev/bmp280/bmp280.c **** 
 422              		.loc 1 98 8 is_stmt 0 view .LVU130
 423 005c 6568     		ldr	r5, [r4, #4]
  98:./dev/bmp280/bmp280.c **** 
 424              		.loc 1 98 2 view .LVU131
 425 005e 0123     		movs	r3, #1
 426 0060 0DF10602 		add	r2, sp, #6
 427 0064 F421     		movs	r1, #244
 428 0066 2078     		ldrb	r0, [r4]	@ zero_extendqisi2
 429 0068 A847     		blx	r5
 430              	.LVL40:
 100:./dev/bmp280/bmp280.c **** 	bmp280->I2CWriteReg(bmp280->DevAddr, BMP280_CONFIG_REG, &writeData, 1);
 431              		.loc 1 100 2 is_stmt 1 view .LVU132
 100:./dev/bmp280/bmp280.c **** 	bmp280->I2CWriteReg(bmp280->DevAddr, BMP280_CONFIG_REG, &writeData, 1);
 432              		.loc 1 100 12 is_stmt 0 view .LVU133
 433 006a 1023     		movs	r3, #16
 434 006c 8DF80630 		strb	r3, [sp, #6]
 101:./dev/bmp280/bmp280.c **** 
 435              		.loc 1 101 2 is_stmt 1 view .LVU134
 101:./dev/bmp280/bmp280.c **** 
 436              		.loc 1 101 8 is_stmt 0 view .LVU135
 437 0070 6568     		ldr	r5, [r4, #4]
 101:./dev/bmp280/bmp280.c **** 
 438              		.loc 1 101 2 view .LVU136
 439 0072 0123     		movs	r3, #1
 440 0074 0DF10602 		add	r2, sp, #6
 441 0078 F521     		movs	r1, #245
 442 007a 2078     		ldrb	r0, [r4]	@ zero_extendqisi2
 443 007c A847     		blx	r5
 444              	.LVL41:
 103:./dev/bmp280/bmp280.c **** }
 445              		.loc 1 103 2 is_stmt 1 view .LVU137
 103:./dev/bmp280/bmp280.c **** }
 446              		.loc 1 103 10 is_stmt 0 view .LVU138
 447 007e 0020     		movs	r0, #0
 448              	.LVL42:
 449              	.L7:
 104:./dev/bmp280/bmp280.c **** 
 450              		.loc 1 104 1 view .LVU139
 451 0080 03B0     		add	sp, sp, #12
ARM GAS  /tmp/ccYvNz9y.s 			page 12


 452              	.LCFI3:
 453              		.cfi_remember_state
 454              		.cfi_def_cfa_offset 12
 455              		@ sp needed
 456 0082 30BD     		pop	{r4, r5, pc}
 457              	.LVL43:
 458              	.L9:
 459              	.LCFI4:
 460              		.cfi_restore_state
  80:./dev/bmp280/bmp280.c **** 	}
 461              		.loc 1 80 10 view .LVU140
 462 0084 0120     		movs	r0, #1
 463              	.LVL44:
  80:./dev/bmp280/bmp280.c **** 	}
 464              		.loc 1 80 10 view .LVU141
 465 0086 FBE7     		b	.L7
 466              	.LVL45:
 467              	.L10:
  80:./dev/bmp280/bmp280.c **** 	}
 468              		.loc 1 80 10 view .LVU142
 469 0088 0120     		movs	r0, #1
 470              	.LVL46:
  80:./dev/bmp280/bmp280.c **** 	}
 471              		.loc 1 80 10 view .LVU143
 472 008a F9E7     		b	.L7
 473              	.LVL47:
 474              	.L11:
  80:./dev/bmp280/bmp280.c **** 	}
 475              		.loc 1 80 10 view .LVU144
 476 008c 0120     		movs	r0, #1
 477              	.LVL48:
  80:./dev/bmp280/bmp280.c **** 	}
 478              		.loc 1 80 10 view .LVU145
 479 008e F7E7     		b	.L7
 480              		.cfi_endproc
 481              	.LFE124:
 483              		.section	.text.BMP280_Startup,"ax",%progbits
 484              		.align	1
 485              		.global	BMP280_Startup
 486              		.syntax unified
 487              		.thumb
 488              		.thumb_func
 489              		.fpu fpv4-sp-d16
 491              	BMP280_Startup:
 492              	.LVL49:
 493              	.LFB127:
 141:./dev/bmp280/bmp280.c **** 
 142:./dev/bmp280/bmp280.c **** 
 143:./dev/bmp280/bmp280.c **** 
 144:./dev/bmp280/bmp280.c **** 
 145:./dev/bmp280/bmp280.c **** 
 146:./dev/bmp280/bmp280.c **** 
 147:./dev/bmp280/bmp280.c **** 
 148:./dev/bmp280/bmp280.c **** E_BMP280_ERROR BMP280_Startup(BMP280_t * bmp280)
 149:./dev/bmp280/bmp280.c **** {
 494              		.loc 1 149 1 is_stmt 1 view -0
 495              		.cfi_startproc
ARM GAS  /tmp/ccYvNz9y.s 			page 13


 496              		@ args = 0, pretend = 0, frame = 8
 497              		@ frame_needed = 0, uses_anonymous_args = 0
 498              		.loc 1 149 1 is_stmt 0 view .LVU147
 499 0000 10B5     		push	{r4, lr}
 500              	.LCFI5:
 501              		.cfi_def_cfa_offset 8
 502              		.cfi_offset 4, -8
 503              		.cfi_offset 14, -4
 504 0002 82B0     		sub	sp, sp, #8
 505              	.LCFI6:
 506              		.cfi_def_cfa_offset 16
 150:./dev/bmp280/bmp280.c **** 	uint8_t writeData = BMP280_MODE;
 507              		.loc 1 150 2 is_stmt 1 view .LVU148
 508              		.loc 1 150 10 is_stmt 0 view .LVU149
 509 0004 2D23     		movs	r3, #45
 510 0006 8DF80730 		strb	r3, [sp, #7]
 151:./dev/bmp280/bmp280.c **** 
 152:./dev/bmp280/bmp280.c **** 	if((NULL == bmp280)
 511              		.loc 1 152 2 is_stmt 1 view .LVU150
 512              		.loc 1 152 4 is_stmt 0 view .LVU151
 513 000a 50B1     		cbz	r0, .L15
 153:./dev/bmp280/bmp280.c **** 		|| (NULL == bmp280->I2CWriteReg)
 514              		.loc 1 153 21 view .LVU152
 515 000c 4468     		ldr	r4, [r0, #4]
 516              		.loc 1 153 3 view .LVU153
 517 000e 54B1     		cbz	r4, .L16
 154:./dev/bmp280/bmp280.c **** 	)
 155:./dev/bmp280/bmp280.c **** 	{
 156:./dev/bmp280/bmp280.c **** 		return E_BMP280_ERROR_NULL;
 157:./dev/bmp280/bmp280.c **** 	}
 158:./dev/bmp280/bmp280.c **** 
 159:./dev/bmp280/bmp280.c **** 	bmp280->I2CWriteReg(bmp280->DevAddr, BMP280_CTRL_MEAS_REG, &writeData, 1);
 518              		.loc 1 159 2 is_stmt 1 view .LVU154
 519 0010 0123     		movs	r3, #1
 520 0012 0DF10702 		add	r2, sp, #7
 521 0016 F421     		movs	r1, #244
 522 0018 0078     		ldrb	r0, [r0]	@ zero_extendqisi2
 523              	.LVL50:
 524              		.loc 1 159 2 is_stmt 0 view .LVU155
 525 001a A047     		blx	r4
 526              	.LVL51:
 160:./dev/bmp280/bmp280.c **** 
 161:./dev/bmp280/bmp280.c **** 	return  E_BMP280_ERROR_OK;
 527              		.loc 1 161 2 is_stmt 1 view .LVU156
 528              		.loc 1 161 10 is_stmt 0 view .LVU157
 529 001c 0020     		movs	r0, #0
 530              	.L14:
 162:./dev/bmp280/bmp280.c **** }
 531              		.loc 1 162 1 view .LVU158
 532 001e 02B0     		add	sp, sp, #8
 533              	.LCFI7:
 534              		.cfi_remember_state
 535              		.cfi_def_cfa_offset 8
 536              		@ sp needed
 537 0020 10BD     		pop	{r4, pc}
 538              	.LVL52:
 539              	.L15:
ARM GAS  /tmp/ccYvNz9y.s 			page 14


 540              	.LCFI8:
 541              		.cfi_restore_state
 156:./dev/bmp280/bmp280.c **** 	}
 542              		.loc 1 156 10 view .LVU159
 543 0022 0120     		movs	r0, #1
 544              	.LVL53:
 156:./dev/bmp280/bmp280.c **** 	}
 545              		.loc 1 156 10 view .LVU160
 546 0024 FBE7     		b	.L14
 547              	.LVL54:
 548              	.L16:
 156:./dev/bmp280/bmp280.c **** 	}
 549              		.loc 1 156 10 view .LVU161
 550 0026 0120     		movs	r0, #1
 551              	.LVL55:
 156:./dev/bmp280/bmp280.c **** 	}
 552              		.loc 1 156 10 view .LVU162
 553 0028 F9E7     		b	.L14
 554              		.cfi_endproc
 555              	.LFE127:
 557              		.section	.text.BMP280_GetData,"ax",%progbits
 558              		.align	1
 559              		.global	BMP280_GetData
 560              		.syntax unified
 561              		.thumb
 562              		.thumb_func
 563              		.fpu fpv4-sp-d16
 565              	BMP280_GetData:
 566              	.LVL56:
 567              	.LFB128:
 163:./dev/bmp280/bmp280.c **** 
 164:./dev/bmp280/bmp280.c **** 
 165:./dev/bmp280/bmp280.c **** E_BMP280_ERROR BMP280_GetData(BMP280_t * bmp280, BMP280_Data_t * data)
 166:./dev/bmp280/bmp280.c **** {
 568              		.loc 1 166 1 is_stmt 1 view -0
 569              		.cfi_startproc
 570              		@ args = 0, pretend = 0, frame = 8
 571              		@ frame_needed = 0, uses_anonymous_args = 0
 572              		.loc 1 166 1 is_stmt 0 view .LVU164
 573 0000 70B5     		push	{r4, r5, r6, lr}
 574              	.LCFI9:
 575              		.cfi_def_cfa_offset 16
 576              		.cfi_offset 4, -16
 577              		.cfi_offset 5, -12
 578              		.cfi_offset 6, -8
 579              		.cfi_offset 14, -4
 580 0002 82B0     		sub	sp, sp, #8
 581              	.LCFI10:
 582              		.cfi_def_cfa_offset 24
 167:./dev/bmp280/bmp280.c ****     uint8_t dataBuffer[6] = {0};
 583              		.loc 1 167 5 is_stmt 1 view .LVU165
 584              		.loc 1 167 13 is_stmt 0 view .LVU166
 585 0004 0023     		movs	r3, #0
 586 0006 0093     		str	r3, [sp]
 587 0008 ADF80430 		strh	r3, [sp, #4]	@ movhi
 168:./dev/bmp280/bmp280.c **** 
 169:./dev/bmp280/bmp280.c ****     int32_t pressure = 0;
ARM GAS  /tmp/ccYvNz9y.s 			page 15


 588              		.loc 1 169 5 is_stmt 1 view .LVU167
 589              	.LVL57:
 170:./dev/bmp280/bmp280.c ****     int32_t temperature = 0;
 590              		.loc 1 170 5 view .LVU168
 171:./dev/bmp280/bmp280.c **** 
 172:./dev/bmp280/bmp280.c **** 
 173:./dev/bmp280/bmp280.c **** 	if((NULL == bmp280)
 591              		.loc 1 173 2 view .LVU169
 592              		.loc 1 173 4 is_stmt 0 view .LVU170
 593 000c 0028     		cmp	r0, #0
 594 000e 3CD0     		beq	.L20
 595 0010 0D46     		mov	r5, r1
 596 0012 0646     		mov	r6, r0
 174:./dev/bmp280/bmp280.c **** 		|| (NULL == bmp280->I2CReadReg)
 597              		.loc 1 174 21 view .LVU171
 598 0014 8468     		ldr	r4, [r0, #8]
 599              		.loc 1 174 3 view .LVU172
 600 0016 D4B3     		cbz	r4, .L21
 175:./dev/bmp280/bmp280.c **** 	)
 176:./dev/bmp280/bmp280.c **** 	{
 177:./dev/bmp280/bmp280.c **** 		return E_BMP280_ERROR_NULL;
 178:./dev/bmp280/bmp280.c **** 	}
 179:./dev/bmp280/bmp280.c **** 
 180:./dev/bmp280/bmp280.c **** 	bmp280->I2CReadReg(bmp280->DevAddr, BMP280_PRESSURE_MSB_REG, dataBuffer, 6);
 601              		.loc 1 180 2 is_stmt 1 view .LVU173
 602 0018 0623     		movs	r3, #6
 603 001a 6A46     		mov	r2, sp
 604 001c F721     		movs	r1, #247
 605              	.LVL58:
 606              		.loc 1 180 2 is_stmt 0 view .LVU174
 607 001e 0078     		ldrb	r0, [r0]	@ zero_extendqisi2
 608              	.LVL59:
 609              		.loc 1 180 2 view .LVU175
 610 0020 A047     		blx	r4
 611              	.LVL60:
 181:./dev/bmp280/bmp280.c **** 
 182:./dev/bmp280/bmp280.c **** 	pressure = (int32_t)((((uint32_t)(dataBuffer[0])) << 12) | (((uint32_t)(dataBuffer[1])) << 4) | ((
 612              		.loc 1 182 2 is_stmt 1 view .LVU176
 613              		.loc 1 182 46 is_stmt 0 view .LVU177
 614 0022 9DF80030 		ldrb	r3, [sp]	@ zero_extendqisi2
 615              		.loc 1 182 84 view .LVU178
 616 0026 9DF80140 		ldrb	r4, [sp, #1]	@ zero_extendqisi2
 617              		.loc 1 182 90 view .LVU179
 618 002a 2401     		lsls	r4, r4, #4
 619              		.loc 1 182 59 view .LVU180
 620 002c 44EA0334 		orr	r4, r4, r3, lsl #12
 621              		.loc 1 182 119 view .LVU181
 622 0030 9DF80230 		ldrb	r3, [sp, #2]	@ zero_extendqisi2
 623              		.loc 1 182 96 view .LVU182
 624 0034 44EA1314 		orr	r4, r4, r3, lsr #4
 625              	.LVL61:
 183:./dev/bmp280/bmp280.c **** 	temperature = (int32_t)((((uint32_t)(dataBuffer[3])) << 12) | (((uint32_t)(dataBuffer[4])) << 4) |
 626              		.loc 1 183 2 is_stmt 1 view .LVU183
 627              		.loc 1 183 49 is_stmt 0 view .LVU184
 628 0038 9DF80310 		ldrb	r1, [sp, #3]	@ zero_extendqisi2
 629              		.loc 1 183 87 view .LVU185
 630 003c 9DF80430 		ldrb	r3, [sp, #4]	@ zero_extendqisi2
ARM GAS  /tmp/ccYvNz9y.s 			page 16


 631              		.loc 1 183 93 view .LVU186
 632 0040 1B01     		lsls	r3, r3, #4
 633              		.loc 1 183 62 view .LVU187
 634 0042 43EA0133 		orr	r3, r3, r1, lsl #12
 635              		.loc 1 183 122 view .LVU188
 636 0046 9DF80510 		ldrb	r1, [sp, #5]	@ zero_extendqisi2
 637              	.LVL62:
 184:./dev/bmp280/bmp280.c **** 
 185:./dev/bmp280/bmp280.c ****     data->Temp = (float)BMP280_CompensateTemp(bmp280, temperature)/100.0f;	
 638              		.loc 1 185 5 is_stmt 1 view .LVU189
 639              		.loc 1 185 25 is_stmt 0 view .LVU190
 640 004a 43EA1111 		orr	r1, r3, r1, lsr #4
 641              	.LVL63:
 642              		.loc 1 185 25 view .LVU191
 643 004e 3046     		mov	r0, r6
 644 0050 FFF7FEFF 		bl	BMP280_CompensateTemp
 645              	.LVL64:
 646              		.loc 1 185 25 view .LVU192
 647 0054 07EE900A 		vmov	s15, r0	@ int
 648              		.loc 1 185 18 view .LVU193
 649 0058 F8EE677A 		vcvt.f32.u32	s15, s15
 650              		.loc 1 185 67 view .LVU194
 651 005c DFED0D6A 		vldr.32	s13, .L23
 652 0060 87EEA67A 		vdiv.f32	s14, s15, s13
 653              		.loc 1 185 16 view .LVU195
 654 0064 85ED017A 		vstr.32	s14, [r5, #4]
 186:./dev/bmp280/bmp280.c **** 	data->Pressure = (float)BMP280_CompensatePressure(bmp280, pressure)/256.0f;	
 655              		.loc 1 186 2 is_stmt 1 view .LVU196
 656              		.loc 1 186 26 is_stmt 0 view .LVU197
 657 0068 2146     		mov	r1, r4
 658 006a 3046     		mov	r0, r6
 659 006c FFF7FEFF 		bl	BMP280_CompensatePressure
 660              	.LVL65:
 661 0070 07EE900A 		vmov	s15, r0	@ int
 662              		.loc 1 186 19 view .LVU198
 663 0074 F8EE677A 		vcvt.f32.u32	s15, s15
 664              		.loc 1 186 69 view .LVU199
 665 0078 9FED077A 		vldr.32	s14, .L23+4
 666 007c 67EE877A 		vmul.f32	s15, s15, s14
 667              		.loc 1 186 17 view .LVU200
 668 0080 C5ED007A 		vstr.32	s15, [r5]
 187:./dev/bmp280/bmp280.c **** 
 188:./dev/bmp280/bmp280.c **** 	return  E_BMP280_ERROR_OK;
 669              		.loc 1 188 2 is_stmt 1 view .LVU201
 670              		.loc 1 188 10 is_stmt 0 view .LVU202
 671 0084 0020     		movs	r0, #0
 672              	.LVL66:
 673              	.L19:
 189:./dev/bmp280/bmp280.c **** }
 674              		.loc 1 189 1 view .LVU203
 675 0086 02B0     		add	sp, sp, #8
 676              	.LCFI11:
 677              		.cfi_remember_state
 678              		.cfi_def_cfa_offset 16
 679              		@ sp needed
 680 0088 70BD     		pop	{r4, r5, r6, pc}
 681              	.LVL67:
ARM GAS  /tmp/ccYvNz9y.s 			page 17


 682              	.L20:
 683              	.LCFI12:
 684              		.cfi_restore_state
 177:./dev/bmp280/bmp280.c **** 	}
 685              		.loc 1 177 10 view .LVU204
 686 008a 0120     		movs	r0, #1
 687              	.LVL68:
 177:./dev/bmp280/bmp280.c **** 	}
 688              		.loc 1 177 10 view .LVU205
 689 008c FBE7     		b	.L19
 690              	.LVL69:
 691              	.L21:
 177:./dev/bmp280/bmp280.c **** 	}
 692              		.loc 1 177 10 view .LVU206
 693 008e 0120     		movs	r0, #1
 694              	.LVL70:
 177:./dev/bmp280/bmp280.c **** 	}
 695              		.loc 1 177 10 view .LVU207
 696 0090 F9E7     		b	.L19
 697              	.L24:
 698 0092 00BF     		.align	2
 699              	.L23:
 700 0094 0000C842 		.word	1120403456
 701 0098 0000803B 		.word	998244352
 702              		.cfi_endproc
 703              	.LFE128:
 705              		.text
 706              	.Letext0:
 707              		.file 2 "/usr/lib/gcc/arm-none-eabi/10.3.1/include/stdint.h"
 708              		.file 3 "./dev/bmp280/bmp280.h"
ARM GAS  /tmp/ccYvNz9y.s 			page 18

