ARM GAS  /tmp/ccB7zUpZ.s 			page 1


   1              		.cpu cortex-m4
   2              		.eabi_attribute 27, 1
   3              		.eabi_attribute 28, 1
   4              		.eabi_attribute 20, 1
   5              		.eabi_attribute 21, 1
   6              		.eabi_attribute 23, 3
   7              		.eabi_attribute 24, 1
   8              		.eabi_attribute 25, 1
   9              		.eabi_attribute 26, 1
  10              		.eabi_attribute 30, 1
  11              		.eabi_attribute 34, 1
  12              		.eabi_attribute 18, 4
  13              		.file	"circular_queue.c"
  14              		.text
  15              	.Ltext0:
  16              		.cfi_sections	.debug_frame
  17              		.section	.text.CircularQueue_WriteByte,"ax",%progbits
  18              		.align	1
  19              		.global	CircularQueue_WriteByte
  20              		.arch armv7e-m
  21              		.syntax unified
  22              		.thumb
  23              		.thumb_func
  24              		.fpu fpv4-sp-d16
  26              	CircularQueue_WriteByte:
  27              	.LVL0:
  28              	.LFB123:
  29              		.file 1 "./common/circular_queue/circular_queue.c"
   1:./common/circular_queue/circular_queue.c **** #include "circular_queue.h"
   2:./common/circular_queue/circular_queue.c **** 
   3:./common/circular_queue/circular_queue.c **** 
   4:./common/circular_queue/circular_queue.c **** 
   5:./common/circular_queue/circular_queue.c **** 
   6:./common/circular_queue/circular_queue.c **** E_CIRCULAR_QUEUE_ERROR CircularQueue_WriteByte(CircularQueue_t * const queue, uint8_t data)
   7:./common/circular_queue/circular_queue.c **** {
  30              		.loc 1 7 1 view -0
  31              		.cfi_startproc
  32              		@ args = 0, pretend = 0, frame = 0
  33              		@ frame_needed = 0, uses_anonymous_args = 0
  34              		@ link register save eliminated.
   8:./common/circular_queue/circular_queue.c **** 	uint32_t writeIndex;
  35              		.loc 1 8 2 view .LVU1
   9:./common/circular_queue/circular_queue.c **** 
  10:./common/circular_queue/circular_queue.c **** 	if((NULL == queue)
  36              		.loc 1 10 2 view .LVU2
  37              		.loc 1 10 4 is_stmt 0 view .LVU3
  38 0000 0346     		mov	r3, r0
  39 0002 C8B1     		cbz	r0, .L5
  11:./common/circular_queue/circular_queue.c **** 		|| (NULL == queue->Buffer)
  40              		.loc 1 11 20 view .LVU4
  41 0004 4068     		ldr	r0, [r0, #4]
  42              	.LVL1:
  43              		.loc 1 11 3 view .LVU5
  44 0006 C8B1     		cbz	r0, .L6
  12:./common/circular_queue/circular_queue.c **** 	)
  13:./common/circular_queue/circular_queue.c **** 	{
  14:./common/circular_queue/circular_queue.c **** 		return E_CIRCULAR_QUEUE_ERROR_NULL;
ARM GAS  /tmp/ccB7zUpZ.s 			page 2


  15:./common/circular_queue/circular_queue.c **** 	}
  16:./common/circular_queue/circular_queue.c **** 
  17:./common/circular_queue/circular_queue.c **** 	writeIndex = queue->WriteIndex;
  45              		.loc 1 17 2 is_stmt 1 view .LVU6
  46              		.loc 1 17 13 is_stmt 0 view .LVU7
  47 0008 DA68     		ldr	r2, [r3, #12]
  48              	.LVL2:
  18:./common/circular_queue/circular_queue.c **** 
  19:./common/circular_queue/circular_queue.c **** 
  20:./common/circular_queue/circular_queue.c **** 	if(E_CIRCULAR_QUEUE_STATUS_FULL == queue->Status)
  49              		.loc 1 20 2 is_stmt 1 view .LVU8
  50              		.loc 1 20 42 is_stmt 0 view .LVU9
  51 000a 93F800C0 		ldrb	ip, [r3]	@ zero_extendqisi2
  52              		.loc 1 20 4 view .LVU10
  53 000e BCF1010F 		cmp	ip, #1
  54 0012 15D0     		beq	.L7
  21:./common/circular_queue/circular_queue.c **** 	{
  22:./common/circular_queue/circular_queue.c **** 		return E_CIRCULAR_QUEUE_ERROR_FULL;
  23:./common/circular_queue/circular_queue.c **** 	}
  24:./common/circular_queue/circular_queue.c **** 	else
  25:./common/circular_queue/circular_queue.c **** 	{
  26:./common/circular_queue/circular_queue.c **** 		queue->Buffer[writeIndex] = data;
  55              		.loc 1 26 3 is_stmt 1 view .LVU11
  56              		.loc 1 26 29 is_stmt 0 view .LVU12
  57 0014 8154     		strb	r1, [r0, r2]
  27:./common/circular_queue/circular_queue.c **** 		++writeIndex;
  58              		.loc 1 27 3 is_stmt 1 view .LVU13
  59 0016 0132     		adds	r2, r2, #1
  60              	.LVL3:
  28:./common/circular_queue/circular_queue.c **** 		if(writeIndex == queue->BufferSize)
  61              		.loc 1 28 3 view .LVU14
  62              		.loc 1 28 25 is_stmt 0 view .LVU15
  63 0018 9968     		ldr	r1, [r3, #8]
  64              	.LVL4:
  65              		.loc 1 28 5 view .LVU16
  66 001a 9142     		cmp	r1, r2
  67 001c 07D0     		beq	.L9
  68              	.LVL5:
  69              	.L3:
  29:./common/circular_queue/circular_queue.c **** 		{
  30:./common/circular_queue/circular_queue.c **** 			writeIndex = 0;
  31:./common/circular_queue/circular_queue.c **** 		}
  32:./common/circular_queue/circular_queue.c **** 
  33:./common/circular_queue/circular_queue.c **** 		queue->WriteIndex = writeIndex;
  70              		.loc 1 33 3 is_stmt 1 view .LVU17
  71              		.loc 1 33 21 is_stmt 0 view .LVU18
  72 001e DA60     		str	r2, [r3, #12]
  34:./common/circular_queue/circular_queue.c **** 		
  35:./common/circular_queue/circular_queue.c **** 		if((E_CIRCULAR_QUEUE_STATUS_NOT_FULL == queue->Status)
  73              		.loc 1 35 3 is_stmt 1 view .LVU19
  74              		.loc 1 35 48 is_stmt 0 view .LVU20
  75 0020 1978     		ldrb	r1, [r3]	@ zero_extendqisi2
  76              		.loc 1 35 5 view .LVU21
  77 0022 11B9     		cbnz	r1, .L4
  36:./common/circular_queue/circular_queue.c **** 			&& (writeIndex == queue->ReadIndex)
  78              		.loc 1 36 27 view .LVU22
  79 0024 1969     		ldr	r1, [r3, #16]
ARM GAS  /tmp/ccB7zUpZ.s 			page 3


  80              		.loc 1 36 4 view .LVU23
  81 0026 9142     		cmp	r1, r2
  82 0028 03D0     		beq	.L10
  83              	.LVL6:
  84              	.L4:
  37:./common/circular_queue/circular_queue.c **** 		)
  38:./common/circular_queue/circular_queue.c **** 		{
  39:./common/circular_queue/circular_queue.c **** 			queue->Status = E_CIRCULAR_QUEUE_STATUS_FULL;
  40:./common/circular_queue/circular_queue.c **** 		}
  41:./common/circular_queue/circular_queue.c **** 		
  42:./common/circular_queue/circular_queue.c **** 		
  43:./common/circular_queue/circular_queue.c **** 		return E_CIRCULAR_QUEUE_ERROR_OK;
  85              		.loc 1 43 3 is_stmt 1 view .LVU24
  86              		.loc 1 43 10 is_stmt 0 view .LVU25
  87 002a 0020     		movs	r0, #0
  88 002c 7047     		bx	lr
  89              	.LVL7:
  90              	.L9:
  30:./common/circular_queue/circular_queue.c **** 		}
  91              		.loc 1 30 15 view .LVU26
  92 002e 0022     		movs	r2, #0
  93              	.LVL8:
  30:./common/circular_queue/circular_queue.c **** 		}
  94              		.loc 1 30 15 view .LVU27
  95 0030 F5E7     		b	.L3
  96              	.LVL9:
  97              	.L10:
  39:./common/circular_queue/circular_queue.c **** 		}
  98              		.loc 1 39 4 is_stmt 1 view .LVU28
  39:./common/circular_queue/circular_queue.c **** 		}
  99              		.loc 1 39 18 is_stmt 0 view .LVU29
 100 0032 0122     		movs	r2, #1
 101              	.LVL10:
  39:./common/circular_queue/circular_queue.c **** 		}
 102              		.loc 1 39 18 view .LVU30
 103 0034 1A70     		strb	r2, [r3]
 104 0036 F8E7     		b	.L4
 105              	.LVL11:
 106              	.L5:
  14:./common/circular_queue/circular_queue.c **** 	}
 107              		.loc 1 14 10 view .LVU31
 108 0038 0120     		movs	r0, #1
 109              	.LVL12:
  14:./common/circular_queue/circular_queue.c **** 	}
 110              		.loc 1 14 10 view .LVU32
 111 003a 7047     		bx	lr
 112              	.L6:
 113 003c 0120     		movs	r0, #1
 114 003e 7047     		bx	lr
 115              	.LVL13:
 116              	.L7:
  22:./common/circular_queue/circular_queue.c **** 	}
 117              		.loc 1 22 10 view .LVU33
 118 0040 0220     		movs	r0, #2
  44:./common/circular_queue/circular_queue.c **** 	}
  45:./common/circular_queue/circular_queue.c **** 	
  46:./common/circular_queue/circular_queue.c **** }
ARM GAS  /tmp/ccB7zUpZ.s 			page 4


 119              		.loc 1 46 1 view .LVU34
 120 0042 7047     		bx	lr
 121              		.cfi_endproc
 122              	.LFE123:
 124              		.section	.text.CircularQueue_ReadByte,"ax",%progbits
 125              		.align	1
 126              		.global	CircularQueue_ReadByte
 127              		.syntax unified
 128              		.thumb
 129              		.thumb_func
 130              		.fpu fpv4-sp-d16
 132              	CircularQueue_ReadByte:
 133              	.LVL14:
 134              	.LFB124:
  47:./common/circular_queue/circular_queue.c **** 
  48:./common/circular_queue/circular_queue.c **** 
  49:./common/circular_queue/circular_queue.c **** E_CIRCULAR_QUEUE_ERROR CircularQueue_ReadByte(CircularQueue_t * const queue, uint8_t * data)
  50:./common/circular_queue/circular_queue.c **** {
 135              		.loc 1 50 1 is_stmt 1 view -0
 136              		.cfi_startproc
 137              		@ args = 0, pretend = 0, frame = 0
 138              		@ frame_needed = 0, uses_anonymous_args = 0
 139              		@ link register save eliminated.
  51:./common/circular_queue/circular_queue.c **** 	uint32_t readIndex;
 140              		.loc 1 51 2 view .LVU36
  52:./common/circular_queue/circular_queue.c **** 
  53:./common/circular_queue/circular_queue.c **** 	if((NULL == queue)
 141              		.loc 1 53 2 view .LVU37
 142              		.loc 1 53 4 is_stmt 0 view .LVU38
 143 0000 B8B1     		cbz	r0, .L15
 144 0002 0346     		mov	r3, r0
  54:./common/circular_queue/circular_queue.c **** 		|| (NULL == queue->Buffer)
 145              		.loc 1 54 20 view .LVU39
 146 0004 4068     		ldr	r0, [r0, #4]
 147              	.LVL15:
 148              		.loc 1 54 3 view .LVU40
 149 0006 B0B1     		cbz	r0, .L16
  50:./common/circular_queue/circular_queue.c **** 	uint32_t readIndex;
 150              		.loc 1 50 1 view .LVU41
 151 0008 10B4     		push	{r4}
 152              	.LCFI0:
 153              		.cfi_def_cfa_offset 4
 154              		.cfi_offset 4, -4
  55:./common/circular_queue/circular_queue.c **** 	)
  56:./common/circular_queue/circular_queue.c **** 	{
  57:./common/circular_queue/circular_queue.c **** 		return E_CIRCULAR_QUEUE_ERROR_NULL;
  58:./common/circular_queue/circular_queue.c **** 	}
  59:./common/circular_queue/circular_queue.c **** 
  60:./common/circular_queue/circular_queue.c **** 	readIndex = queue->ReadIndex;
 155              		.loc 1 60 2 is_stmt 1 view .LVU42
 156              		.loc 1 60 12 is_stmt 0 view .LVU43
 157 000a 1A69     		ldr	r2, [r3, #16]
 158              	.LVL16:
  61:./common/circular_queue/circular_queue.c **** 
  62:./common/circular_queue/circular_queue.c **** 	if((readIndex == queue->WriteIndex)
 159              		.loc 1 62 2 is_stmt 1 view .LVU44
 160              		.loc 1 62 4 is_stmt 0 view .LVU45
ARM GAS  /tmp/ccB7zUpZ.s 			page 5


 161 000c DC68     		ldr	r4, [r3, #12]
 162 000e 9442     		cmp	r4, r2
 163 0010 01D1     		bne	.L13
  63:./common/circular_queue/circular_queue.c **** 		&& (E_CIRCULAR_QUEUE_STATUS_NOT_FULL == queue->Status)
 164              		.loc 1 63 48 view .LVU46
 165 0012 1C78     		ldrb	r4, [r3]	@ zero_extendqisi2
 166              		.loc 1 63 3 view .LVU47
 167 0014 8CB1     		cbz	r4, .L17
 168              	.L13:
  64:./common/circular_queue/circular_queue.c **** 	)
  65:./common/circular_queue/circular_queue.c **** 	{
  66:./common/circular_queue/circular_queue.c **** 		return E_CIRCULAR_QUEUE_ERROR_EMPTY;
  67:./common/circular_queue/circular_queue.c **** 	}
  68:./common/circular_queue/circular_queue.c **** 	else
  69:./common/circular_queue/circular_queue.c **** 	{
  70:./common/circular_queue/circular_queue.c **** 		*data = queue->Buffer[readIndex];
 169              		.loc 1 70 3 is_stmt 1 view .LVU48
 170              		.loc 1 70 24 is_stmt 0 view .LVU49
 171 0016 805C     		ldrb	r0, [r0, r2]	@ zero_extendqisi2
 172              		.loc 1 70 9 view .LVU50
 173 0018 0870     		strb	r0, [r1]
  71:./common/circular_queue/circular_queue.c **** 	
  72:./common/circular_queue/circular_queue.c **** 		++readIndex;
 174              		.loc 1 72 3 is_stmt 1 view .LVU51
 175 001a 0132     		adds	r2, r2, #1
 176              	.LVL17:
  73:./common/circular_queue/circular_queue.c **** 		if(readIndex == queue->BufferSize)
 177              		.loc 1 73 3 view .LVU52
 178              		.loc 1 73 24 is_stmt 0 view .LVU53
 179 001c 9968     		ldr	r1, [r3, #8]
 180              	.LVL18:
 181              		.loc 1 73 5 view .LVU54
 182 001e 9142     		cmp	r1, r2
 183 0020 05D0     		beq	.L23
 184              	.LVL19:
 185              	.L14:
  74:./common/circular_queue/circular_queue.c **** 		{
  75:./common/circular_queue/circular_queue.c **** 			readIndex = 0;
  76:./common/circular_queue/circular_queue.c **** 		}
  77:./common/circular_queue/circular_queue.c **** 		
  78:./common/circular_queue/circular_queue.c **** 		queue->ReadIndex = readIndex;
 186              		.loc 1 78 3 is_stmt 1 view .LVU55
 187              		.loc 1 78 20 is_stmt 0 view .LVU56
 188 0022 1A61     		str	r2, [r3, #16]
  79:./common/circular_queue/circular_queue.c **** 
  80:./common/circular_queue/circular_queue.c **** 		queue->Status = E_CIRCULAR_QUEUE_STATUS_NOT_FULL;
 189              		.loc 1 80 3 is_stmt 1 view .LVU57
 190              		.loc 1 80 17 is_stmt 0 view .LVU58
 191 0024 0020     		movs	r0, #0
 192 0026 1870     		strb	r0, [r3]
  81:./common/circular_queue/circular_queue.c **** 		
  82:./common/circular_queue/circular_queue.c **** 		return E_CIRCULAR_QUEUE_ERROR_OK;
 193              		.loc 1 82 3 is_stmt 1 view .LVU59
 194              	.L12:
  83:./common/circular_queue/circular_queue.c **** 	}
  84:./common/circular_queue/circular_queue.c **** 	
  85:./common/circular_queue/circular_queue.c **** }
ARM GAS  /tmp/ccB7zUpZ.s 			page 6


 195              		.loc 1 85 1 is_stmt 0 view .LVU60
 196 0028 5DF8044B 		ldr	r4, [sp], #4
 197              	.LCFI1:
 198              		.cfi_remember_state
 199              		.cfi_restore 4
 200              		.cfi_def_cfa_offset 0
 201 002c 7047     		bx	lr
 202              	.L23:
 203              	.LCFI2:
 204              		.cfi_restore_state
  75:./common/circular_queue/circular_queue.c **** 		}
 205              		.loc 1 75 14 view .LVU61
 206 002e 0022     		movs	r2, #0
 207              	.LVL20:
  75:./common/circular_queue/circular_queue.c **** 		}
 208              		.loc 1 75 14 view .LVU62
 209 0030 F7E7     		b	.L14
 210              	.LVL21:
 211              	.L15:
 212              	.LCFI3:
 213              		.cfi_def_cfa_offset 0
 214              		.cfi_restore 4
  57:./common/circular_queue/circular_queue.c **** 	}
 215              		.loc 1 57 10 view .LVU63
 216 0032 0120     		movs	r0, #1
 217              	.LVL22:
  57:./common/circular_queue/circular_queue.c **** 	}
 218              		.loc 1 57 10 view .LVU64
 219 0034 7047     		bx	lr
 220              	.LVL23:
 221              	.L16:
  57:./common/circular_queue/circular_queue.c **** 	}
 222              		.loc 1 57 10 view .LVU65
 223 0036 0120     		movs	r0, #1
 224              		.loc 1 85 1 view .LVU66
 225 0038 7047     		bx	lr
 226              	.LVL24:
 227              	.L17:
 228              	.LCFI4:
 229              		.cfi_def_cfa_offset 4
 230              		.cfi_offset 4, -4
  66:./common/circular_queue/circular_queue.c **** 	}
 231              		.loc 1 66 10 view .LVU67
 232 003a 0320     		movs	r0, #3
 233 003c F4E7     		b	.L12
 234              		.cfi_endproc
 235              	.LFE124:
 237              		.text
 238              	.Letext0:
 239              		.file 2 "/usr/lib/gcc/arm-none-eabi/10.3.1/include/stdint.h"
 240              		.file 3 "./common/circular_queue/circular_queue.h"
ARM GAS  /tmp/ccB7zUpZ.s 			page 7

