ARM GAS  /tmp/ccvLcsU8.s 			page 1


   1              		.cpu cortex-m4
   2              		.eabi_attribute 27, 1
   3              		.eabi_attribute 28, 1
   4              		.eabi_attribute 20, 1
   5              		.eabi_attribute 21, 1
   6              		.eabi_attribute 23, 3
   7              		.eabi_attribute 24, 1
   8              		.eabi_attribute 25, 1
   9              		.eabi_attribute 26, 1
  10              		.eabi_attribute 30, 1
  11              		.eabi_attribute 34, 1
  12              		.eabi_attribute 18, 4
  13              		.file	"i2c_hal.c"
  14              		.text
  15              	.Ltext0:
  16              		.cfi_sections	.debug_frame
  17              		.section	.text.I2C_HalInit,"ax",%progbits
  18              		.align	1
  19              		.global	I2C_HalInit
  20              		.arch armv7e-m
  21              		.syntax unified
  22              		.thumb
  23              		.thumb_func
  24              		.fpu fpv4-sp-d16
  26              	I2C_HalInit:
  27              	.LVL0:
  28              	.LFB123:
  29              		.file 1 "./hal/i2c/i2c_hal.c"
   1:./hal/i2c/i2c_hal.c **** #include "i2c_hal.h"
   2:./hal/i2c/i2c_hal.c **** 
   3:./hal/i2c/i2c_hal.c **** 
   4:./hal/i2c/i2c_hal.c **** E_I2C_ERROR I2C_HalInit(I2C_HAL_t * i2c)
   5:./hal/i2c/i2c_hal.c **** {
  30              		.loc 1 5 1 view -0
  31              		.cfi_startproc
  32              		@ args = 0, pretend = 0, frame = 0
  33              		@ frame_needed = 0, uses_anonymous_args = 0
  34              		.loc 1 5 1 is_stmt 0 view .LVU1
  35 0000 08B5     		push	{r3, lr}
  36              	.LCFI0:
  37              		.cfi_def_cfa_offset 8
  38              		.cfi_offset 3, -8
  39              		.cfi_offset 14, -4
   6:./hal/i2c/i2c_hal.c **** 	if(NULL != i2c->Init)
  40              		.loc 1 6 2 is_stmt 1 view .LVU2
  41              		.loc 1 6 16 is_stmt 0 view .LVU3
  42 0002 0368     		ldr	r3, [r0]
  43              		.loc 1 6 4 view .LVU4
  44 0004 03B1     		cbz	r3, .L2
   7:./hal/i2c/i2c_hal.c **** 	{
   8:./hal/i2c/i2c_hal.c **** 		i2c->Init();
  45              		.loc 1 8 3 is_stmt 1 view .LVU5
  46 0006 9847     		blx	r3
  47              	.LVL1:
  48              	.L2:
   9:./hal/i2c/i2c_hal.c **** 	}
  10:./hal/i2c/i2c_hal.c **** 	
ARM GAS  /tmp/ccvLcsU8.s 			page 2


  11:./hal/i2c/i2c_hal.c **** 	return E_I2C_ERROR_OK;
  49              		.loc 1 11 2 view .LVU6
  12:./hal/i2c/i2c_hal.c **** }
  50              		.loc 1 12 1 is_stmt 0 view .LVU7
  51 0008 0020     		movs	r0, #0
  52 000a 08BD     		pop	{r3, pc}
  53              		.cfi_endproc
  54              	.LFE123:
  56              		.section	.text.I2C_HalSendData,"ax",%progbits
  57              		.align	1
  58              		.global	I2C_HalSendData
  59              		.syntax unified
  60              		.thumb
  61              		.thumb_func
  62              		.fpu fpv4-sp-d16
  64              	I2C_HalSendData:
  65              	.LVL2:
  66              	.LFB124:
  13:./hal/i2c/i2c_hal.c **** 
  14:./hal/i2c/i2c_hal.c **** E_I2C_ERROR I2C_HalSendData(I2C_HAL_t * i2c, uint8_t addr, uint8_t * reg, uint32_t regLen,uint8_t *
  15:./hal/i2c/i2c_hal.c **** {
  67              		.loc 1 15 1 is_stmt 1 view -0
  68              		.cfi_startproc
  69              		@ args = 8, pretend = 0, frame = 0
  70              		@ frame_needed = 0, uses_anonymous_args = 0
  16:./hal/i2c/i2c_hal.c **** 	if((NULL == i2c)
  71              		.loc 1 16 2 view .LVU9
  72              		.loc 1 16 4 is_stmt 0 view .LVU10
  73 0000 70B1     		cbz	r0, .L6
  15:./hal/i2c/i2c_hal.c **** 	if((NULL == i2c)
  74              		.loc 1 15 1 view .LVU11
  75 0002 10B5     		push	{r4, lr}
  76              	.LCFI1:
  77              		.cfi_def_cfa_offset 8
  78              		.cfi_offset 4, -8
  79              		.cfi_offset 14, -4
  80 0004 82B0     		sub	sp, sp, #8
  81              	.LCFI2:
  82              		.cfi_def_cfa_offset 16
  83 0006 8C46     		mov	ip, r1
  84 0008 1146     		mov	r1, r2
  85              	.LVL3:
  15:./hal/i2c/i2c_hal.c **** 	if((NULL == i2c)
  86              		.loc 1 15 1 view .LVU12
  87 000a 1A46     		mov	r2, r3
  88              	.LVL4:
  17:./hal/i2c/i2c_hal.c **** 		|| (NULL == i2c->SendData)
  89              		.loc 1 17 18 view .LVU13
  90 000c 4468     		ldr	r4, [r0, #4]
  91              		.loc 1 17 3 view .LVU14
  92 000e 4CB1     		cbz	r4, .L7
  18:./hal/i2c/i2c_hal.c **** 	)
  19:./hal/i2c/i2c_hal.c **** 	{
  20:./hal/i2c/i2c_hal.c **** 		return E_I2C_ERROR_NULL;
  21:./hal/i2c/i2c_hal.c **** 	}
  22:./hal/i2c/i2c_hal.c **** 
  23:./hal/i2c/i2c_hal.c **** 	return i2c->SendData(addr, reg, regLen, data, dataLen);
ARM GAS  /tmp/ccvLcsU8.s 			page 3


  93              		.loc 1 23 2 is_stmt 1 view .LVU15
  94              		.loc 1 23 9 is_stmt 0 view .LVU16
  95 0010 059B     		ldr	r3, [sp, #20]
  96              	.LVL5:
  97              		.loc 1 23 9 view .LVU17
  98 0012 0093     		str	r3, [sp]
  99 0014 049B     		ldr	r3, [sp, #16]
 100 0016 6046     		mov	r0, ip
 101              	.LVL6:
 102              		.loc 1 23 9 view .LVU18
 103 0018 A047     		blx	r4
 104              	.LVL7:
 105              		.loc 1 23 9 view .LVU19
 106 001a C0B2     		uxtb	r0, r0
 107              	.L5:
  24:./hal/i2c/i2c_hal.c **** 	
  25:./hal/i2c/i2c_hal.c **** }
 108              		.loc 1 25 1 view .LVU20
 109 001c 02B0     		add	sp, sp, #8
 110              	.LCFI3:
 111              		.cfi_def_cfa_offset 8
 112              		@ sp needed
 113 001e 10BD     		pop	{r4, pc}
 114              	.LVL8:
 115              	.L6:
 116              	.LCFI4:
 117              		.cfi_def_cfa_offset 0
 118              		.cfi_restore 4
 119              		.cfi_restore 14
  20:./hal/i2c/i2c_hal.c **** 	}
 120              		.loc 1 20 10 view .LVU21
 121 0020 0120     		movs	r0, #1
 122              	.LVL9:
 123              		.loc 1 25 1 view .LVU22
 124 0022 7047     		bx	lr
 125              	.LVL10:
 126              	.L7:
 127              	.LCFI5:
 128              		.cfi_def_cfa_offset 16
 129              		.cfi_offset 4, -8
 130              		.cfi_offset 14, -4
  20:./hal/i2c/i2c_hal.c **** 	}
 131              		.loc 1 20 10 view .LVU23
 132 0024 0120     		movs	r0, #1
 133              	.LVL11:
  20:./hal/i2c/i2c_hal.c **** 	}
 134              		.loc 1 20 10 view .LVU24
 135 0026 F9E7     		b	.L5
 136              		.cfi_endproc
 137              	.LFE124:
 139              		.section	.text.I2C_HalReadData,"ax",%progbits
 140              		.align	1
 141              		.global	I2C_HalReadData
 142              		.syntax unified
 143              		.thumb
 144              		.thumb_func
 145              		.fpu fpv4-sp-d16
ARM GAS  /tmp/ccvLcsU8.s 			page 4


 147              	I2C_HalReadData:
 148              	.LVL12:
 149              	.LFB125:
  26:./hal/i2c/i2c_hal.c **** 
  27:./hal/i2c/i2c_hal.c **** 
  28:./hal/i2c/i2c_hal.c **** E_I2C_ERROR I2C_HalReadData(I2C_HAL_t * i2c, uint8_t addr, uint8_t * reg, uint32_t regLen,uint8_t *
  29:./hal/i2c/i2c_hal.c **** {
 150              		.loc 1 29 1 is_stmt 1 view -0
 151              		.cfi_startproc
 152              		@ args = 8, pretend = 0, frame = 0
 153              		@ frame_needed = 0, uses_anonymous_args = 0
  30:./hal/i2c/i2c_hal.c **** 	if((NULL == i2c)
 154              		.loc 1 30 2 view .LVU26
 155              		.loc 1 30 4 is_stmt 0 view .LVU27
 156 0000 70B1     		cbz	r0, .L14
  29:./hal/i2c/i2c_hal.c **** 	if((NULL == i2c)
 157              		.loc 1 29 1 view .LVU28
 158 0002 10B5     		push	{r4, lr}
 159              	.LCFI6:
 160              		.cfi_def_cfa_offset 8
 161              		.cfi_offset 4, -8
 162              		.cfi_offset 14, -4
 163 0004 82B0     		sub	sp, sp, #8
 164              	.LCFI7:
 165              		.cfi_def_cfa_offset 16
 166 0006 8C46     		mov	ip, r1
 167 0008 1146     		mov	r1, r2
 168              	.LVL13:
  29:./hal/i2c/i2c_hal.c **** 	if((NULL == i2c)
 169              		.loc 1 29 1 view .LVU29
 170 000a 1A46     		mov	r2, r3
 171              	.LVL14:
  31:./hal/i2c/i2c_hal.c **** 		|| (NULL == i2c->ReadData)
 172              		.loc 1 31 18 view .LVU30
 173 000c 8468     		ldr	r4, [r0, #8]
 174              		.loc 1 31 3 view .LVU31
 175 000e 4CB1     		cbz	r4, .L15
  32:./hal/i2c/i2c_hal.c **** 	)
  33:./hal/i2c/i2c_hal.c **** 	{
  34:./hal/i2c/i2c_hal.c **** 		return E_I2C_ERROR_NULL;
  35:./hal/i2c/i2c_hal.c **** 	}
  36:./hal/i2c/i2c_hal.c **** 
  37:./hal/i2c/i2c_hal.c **** 	i2c->ReadData(addr, reg, regLen, data, dataLen);
 176              		.loc 1 37 2 is_stmt 1 view .LVU32
 177 0010 059B     		ldr	r3, [sp, #20]
 178              	.LVL15:
 179              		.loc 1 37 2 is_stmt 0 view .LVU33
 180 0012 0093     		str	r3, [sp]
 181 0014 049B     		ldr	r3, [sp, #16]
 182 0016 6046     		mov	r0, ip
 183              	.LVL16:
 184              		.loc 1 37 2 view .LVU34
 185 0018 A047     		blx	r4
 186              	.LVL17:
  38:./hal/i2c/i2c_hal.c **** 
  39:./hal/i2c/i2c_hal.c **** 	return E_I2C_ERROR_OK;
 187              		.loc 1 39 2 is_stmt 1 view .LVU35
ARM GAS  /tmp/ccvLcsU8.s 			page 5


 188              		.loc 1 39 9 is_stmt 0 view .LVU36
 189 001a 0020     		movs	r0, #0
 190              	.L13:
  40:./hal/i2c/i2c_hal.c **** }
 191              		.loc 1 40 1 view .LVU37
 192 001c 02B0     		add	sp, sp, #8
 193              	.LCFI8:
 194              		.cfi_def_cfa_offset 8
 195              		@ sp needed
 196 001e 10BD     		pop	{r4, pc}
 197              	.LVL18:
 198              	.L14:
 199              	.LCFI9:
 200              		.cfi_def_cfa_offset 0
 201              		.cfi_restore 4
 202              		.cfi_restore 14
  34:./hal/i2c/i2c_hal.c **** 	}
 203              		.loc 1 34 10 view .LVU38
 204 0020 0120     		movs	r0, #1
 205              	.LVL19:
 206              		.loc 1 40 1 view .LVU39
 207 0022 7047     		bx	lr
 208              	.LVL20:
 209              	.L15:
 210              	.LCFI10:
 211              		.cfi_def_cfa_offset 16
 212              		.cfi_offset 4, -8
 213              		.cfi_offset 14, -4
  34:./hal/i2c/i2c_hal.c **** 	}
 214              		.loc 1 34 10 view .LVU40
 215 0024 0120     		movs	r0, #1
 216              	.LVL21:
  34:./hal/i2c/i2c_hal.c **** 	}
 217              		.loc 1 34 10 view .LVU41
 218 0026 F9E7     		b	.L13
 219              		.cfi_endproc
 220              	.LFE125:
 222              		.text
 223              	.Letext0:
 224              		.file 2 "/usr/lib/gcc/arm-none-eabi/10.3.1/include/stdint.h"
 225              		.file 3 "./hal/i2c/i2c_hal.h"
ARM GAS  /tmp/ccvLcsU8.s 			page 6

