ARM GAS  /tmp/ccxAH15s.s 			page 1


   1              		.cpu cortex-m4
   2              		.eabi_attribute 27, 1
   3              		.eabi_attribute 28, 1
   4              		.eabi_attribute 20, 1
   5              		.eabi_attribute 21, 1
   6              		.eabi_attribute 23, 3
   7              		.eabi_attribute 24, 1
   8              		.eabi_attribute 25, 1
   9              		.eabi_attribute 26, 1
  10              		.eabi_attribute 30, 1
  11              		.eabi_attribute 34, 1
  12              		.eabi_attribute 18, 4
  13              		.file	"i2c_hal_config.c"
  14              		.text
  15              	.Ltext0:
  16              		.cfi_sections	.debug_frame
  17              		.section	.text.I2C1_ReadData,"ax",%progbits
  18              		.align	1
  19              		.arch armv7e-m
  20              		.syntax unified
  21              		.thumb
  22              		.thumb_func
  23              		.fpu fpv4-sp-d16
  25              	I2C1_ReadData:
  26              	.LVL0:
  27              	.LFB124:
  28              		.file 1 "./hal/i2c/i2c_hal_config.c"
   1:./hal/i2c/i2c_hal_config.c **** #include "i2c_hal_config.h"
   2:./hal/i2c/i2c_hal_config.c **** 
   3:./hal/i2c/i2c_hal_config.c **** #include "simulation_i2c_config.h" 
   4:./hal/i2c/i2c_hal_config.c **** 
   5:./hal/i2c/i2c_hal_config.c **** 
   6:./hal/i2c/i2c_hal_config.c **** 
   7:./hal/i2c/i2c_hal_config.c **** 
   8:./hal/i2c/i2c_hal_config.c **** 
   9:./hal/i2c/i2c_hal_config.c **** static int I2C1_SendData(uint8_t addr, uint8_t *reg, uint32_t regLen, uint8_t * data, uint32_t data
  10:./hal/i2c/i2c_hal_config.c **** {
  11:./hal/i2c/i2c_hal_config.c **** 	return SimulationI2C_SendData(&SimulationI2C1, addr, reg, regLen, data, dataLen);
  12:./hal/i2c/i2c_hal_config.c **** }
  13:./hal/i2c/i2c_hal_config.c **** 
  14:./hal/i2c/i2c_hal_config.c **** static int I2C1_ReadData(uint8_t       addr, uint8_t *reg, uint32_t regLen, uint8_t * data, uint32_
  15:./hal/i2c/i2c_hal_config.c **** {
  29              		.loc 1 15 1 view -0
  30              		.cfi_startproc
  31              		@ args = 4, pretend = 0, frame = 0
  32              		@ frame_needed = 0, uses_anonymous_args = 0
  33              		.loc 1 15 1 is_stmt 0 view .LVU1
  34 0000 10B5     		push	{r4, lr}
  35              	.LCFI0:
  36              		.cfi_def_cfa_offset 8
  37              		.cfi_offset 4, -8
  38              		.cfi_offset 14, -4
  39 0002 82B0     		sub	sp, sp, #8
  40              	.LCFI1:
  41              		.cfi_def_cfa_offset 16
  16:./hal/i2c/i2c_hal_config.c **** 	return SimulationI2C_ReadData(&SimulationI2C1, addr, reg, regLen, data, dataLen);
  42              		.loc 1 16 2 is_stmt 1 view .LVU2
ARM GAS  /tmp/ccxAH15s.s 			page 2


  43              		.loc 1 16 9 is_stmt 0 view .LVU3
  44 0004 9DF81040 		ldrb	r4, [sp, #16]	@ zero_extendqisi2
  45 0008 0194     		str	r4, [sp, #4]
  46 000a 0093     		str	r3, [sp]
  47 000c D3B2     		uxtb	r3, r2
  48              	.LVL1:
  49              		.loc 1 16 9 view .LVU4
  50 000e 0A46     		mov	r2, r1
  51              	.LVL2:
  52              		.loc 1 16 9 view .LVU5
  53 0010 0146     		mov	r1, r0
  54              	.LVL3:
  55              		.loc 1 16 9 view .LVU6
  56 0012 0248     		ldr	r0, .L3
  57              	.LVL4:
  58              		.loc 1 16 9 view .LVU7
  59 0014 FFF7FEFF 		bl	SimulationI2C_ReadData
  60              	.LVL5:
  17:./hal/i2c/i2c_hal_config.c **** }
  61              		.loc 1 17 1 view .LVU8
  62 0018 02B0     		add	sp, sp, #8
  63              	.LCFI2:
  64              		.cfi_def_cfa_offset 8
  65              		@ sp needed
  66 001a 10BD     		pop	{r4, pc}
  67              	.LVL6:
  68              	.L4:
  69              		.loc 1 17 1 view .LVU9
  70              		.align	2
  71              	.L3:
  72 001c 00000000 		.word	SimulationI2C1
  73              		.cfi_endproc
  74              	.LFE124:
  76              		.section	.text.I2C1_SendData,"ax",%progbits
  77              		.align	1
  78              		.syntax unified
  79              		.thumb
  80              		.thumb_func
  81              		.fpu fpv4-sp-d16
  83              	I2C1_SendData:
  84              	.LVL7:
  85              	.LFB123:
  10:./hal/i2c/i2c_hal_config.c **** 	return SimulationI2C_SendData(&SimulationI2C1, addr, reg, regLen, data, dataLen);
  86              		.loc 1 10 1 is_stmt 1 view -0
  87              		.cfi_startproc
  88              		@ args = 4, pretend = 0, frame = 0
  89              		@ frame_needed = 0, uses_anonymous_args = 0
  10:./hal/i2c/i2c_hal_config.c **** 	return SimulationI2C_SendData(&SimulationI2C1, addr, reg, regLen, data, dataLen);
  90              		.loc 1 10 1 is_stmt 0 view .LVU11
  91 0000 10B5     		push	{r4, lr}
  92              	.LCFI3:
  93              		.cfi_def_cfa_offset 8
  94              		.cfi_offset 4, -8
  95              		.cfi_offset 14, -4
  96 0002 82B0     		sub	sp, sp, #8
  97              	.LCFI4:
  98              		.cfi_def_cfa_offset 16
ARM GAS  /tmp/ccxAH15s.s 			page 3


  11:./hal/i2c/i2c_hal_config.c **** }
  99              		.loc 1 11 2 is_stmt 1 view .LVU12
  11:./hal/i2c/i2c_hal_config.c **** }
 100              		.loc 1 11 9 is_stmt 0 view .LVU13
 101 0004 9DF81040 		ldrb	r4, [sp, #16]	@ zero_extendqisi2
 102 0008 0194     		str	r4, [sp, #4]
 103 000a 0093     		str	r3, [sp]
 104 000c 1346     		mov	r3, r2
 105              	.LVL8:
  11:./hal/i2c/i2c_hal_config.c **** }
 106              		.loc 1 11 9 view .LVU14
 107 000e 0A46     		mov	r2, r1
 108              	.LVL9:
  11:./hal/i2c/i2c_hal_config.c **** }
 109              		.loc 1 11 9 view .LVU15
 110 0010 0146     		mov	r1, r0
 111              	.LVL10:
  11:./hal/i2c/i2c_hal_config.c **** }
 112              		.loc 1 11 9 view .LVU16
 113 0012 0248     		ldr	r0, .L7
 114              	.LVL11:
  11:./hal/i2c/i2c_hal_config.c **** }
 115              		.loc 1 11 9 view .LVU17
 116 0014 FFF7FEFF 		bl	SimulationI2C_SendData
 117              	.LVL12:
  12:./hal/i2c/i2c_hal_config.c **** 
 118              		.loc 1 12 1 view .LVU18
 119 0018 02B0     		add	sp, sp, #8
 120              	.LCFI5:
 121              		.cfi_def_cfa_offset 8
 122              		@ sp needed
 123 001a 10BD     		pop	{r4, pc}
 124              	.LVL13:
 125              	.L8:
  12:./hal/i2c/i2c_hal_config.c **** 
 126              		.loc 1 12 1 view .LVU19
 127              		.align	2
 128              	.L7:
 129 001c 00000000 		.word	SimulationI2C1
 130              		.cfi_endproc
 131              	.LFE123:
 133              		.global	I2C_Dev1
 134              		.section	.data.I2C_Dev1,"aw"
 135              		.align	2
 138              	I2C_Dev1:
 139 0000 00000000 		.word	0
 140 0004 00000000 		.word	I2C1_SendData
 141 0008 00000000 		.word	I2C1_ReadData
 142              		.text
 143              	.Letext0:
 144              		.file 2 "/usr/lib/gcc/arm-none-eabi/10.3.1/include/stdint.h"
 145              		.file 3 "./hal/i2c/i2c_hal.h"
 146              		.file 4 "hal/simulation_i2c/simulation_i2c.h"
 147              		.file 5 "./hal/i2c/i2c_hal_config.h"
 148              		.file 6 "hal/simulation_i2c/simulation_i2c_config.h"
ARM GAS  /tmp/ccxAH15s.s 			page 4

