ARM GAS  /tmp/ccv25fCu.s 			page 1


   1              		.cpu cortex-m4
   2              		.eabi_attribute 27, 1
   3              		.eabi_attribute 28, 1
   4              		.eabi_attribute 20, 1
   5              		.eabi_attribute 21, 1
   6              		.eabi_attribute 23, 3
   7              		.eabi_attribute 24, 1
   8              		.eabi_attribute 25, 1
   9              		.eabi_attribute 26, 1
  10              		.eabi_attribute 30, 1
  11              		.eabi_attribute 34, 1
  12              		.eabi_attribute 18, 4
  13              		.file	"led_cfg.c"
  14              		.text
  15              	.Ltext0:
  16              		.cfi_sections	.debug_frame
  17              		.section	.text.LED1_SetValue,"ax",%progbits
  18              		.align	1
  19              		.arch armv7e-m
  20              		.syntax unified
  21              		.thumb
  22              		.thumb_func
  23              		.fpu fpv4-sp-d16
  25              	LED1_SetValue:
  26              	.LVL0:
  27              	.LFB123:
  28              		.file 1 "./dal/led/led_cfg.c"
   1:./dal/led/led_cfg.c **** #include "led_cfg.h"
   2:./dal/led/led_cfg.c **** 
   3:./dal/led/led_cfg.c **** 
   4:./dal/led/led_cfg.c **** /*****************************以下所有代码按工程实际需要配置************************
   5:./dal/led/led_cfg.c **** #include "gpio_config.h"
   6:./dal/led/led_cfg.c **** 
   7:./dal/led/led_cfg.c **** #define LED1_ON()            GPIO_ResetBits(LED1_GPIO, LED1_GPIO_PIN)
   8:./dal/led/led_cfg.c **** #define LED1_OFF()           GPIO_SetBits(LED1_GPIO, LED1_GPIO_PIN)
   9:./dal/led/led_cfg.c **** 
  10:./dal/led/led_cfg.c **** #define LED2_ON()            GPIO_ResetBits(LED2_GPIO, LED2_GPIO_PIN)
  11:./dal/led/led_cfg.c **** #define LED2_OFF()           GPIO_SetBits(LED2_GPIO, LED2_GPIO_PIN)
  12:./dal/led/led_cfg.c **** 
  13:./dal/led/led_cfg.c **** #define LED3_ON()            GPIO_ResetBits(LED3_GPIO, LED3_GPIO_PIN)
  14:./dal/led/led_cfg.c **** #define LED3_OFF()           GPIO_SetBits(LED3_GPIO, LED3_GPIO_PIN)
  15:./dal/led/led_cfg.c **** 
  16:./dal/led/led_cfg.c **** 
  17:./dal/led/led_cfg.c **** static void LED1_SetValue(uint32_t value)
  18:./dal/led/led_cfg.c **** {
  29              		.loc 1 18 1 view -0
  30              		.cfi_startproc
  31              		@ args = 0, pretend = 0, frame = 0
  32              		@ frame_needed = 0, uses_anonymous_args = 0
  33              		.loc 1 18 1 is_stmt 0 view .LVU1
  34 0000 08B5     		push	{r3, lr}
  35              	.LCFI0:
  36              		.cfi_def_cfa_offset 8
  37              		.cfi_offset 3, -8
  38              		.cfi_offset 14, -4
  19:./dal/led/led_cfg.c **** 	if(0 == value)
  39              		.loc 1 19 2 is_stmt 1 view .LVU2
ARM GAS  /tmp/ccv25fCu.s 			page 2


  40              		.loc 1 19 4 is_stmt 0 view .LVU3
  41 0002 28B9     		cbnz	r0, .L2
  20:./dal/led/led_cfg.c **** 	{
  21:./dal/led/led_cfg.c **** 		GPIO_SetBits(LED1_GPIO, LED1_GPIO_PIN);
  42              		.loc 1 21 3 is_stmt 1 view .LVU4
  43 0004 4FF48041 		mov	r1, #16384
  44 0008 0448     		ldr	r0, .L5
  45              	.LVL1:
  46              		.loc 1 21 3 is_stmt 0 view .LVU5
  47 000a FFF7FEFF 		bl	GPIO_SetBits
  48              	.LVL2:
  49              	.L1:
  22:./dal/led/led_cfg.c **** 	}
  23:./dal/led/led_cfg.c **** 	else
  24:./dal/led/led_cfg.c **** 	{
  25:./dal/led/led_cfg.c **** 		GPIO_ResetBits(LED1_GPIO, LED1_GPIO_PIN);
  26:./dal/led/led_cfg.c **** 	}
  27:./dal/led/led_cfg.c **** }
  50              		.loc 1 27 1 view .LVU6
  51 000e 08BD     		pop	{r3, pc}
  52              	.LVL3:
  53              	.L2:
  25:./dal/led/led_cfg.c **** 	}
  54              		.loc 1 25 3 is_stmt 1 view .LVU7
  55 0010 4FF48041 		mov	r1, #16384
  56 0014 0148     		ldr	r0, .L5
  57              	.LVL4:
  25:./dal/led/led_cfg.c **** 	}
  58              		.loc 1 25 3 is_stmt 0 view .LVU8
  59 0016 FFF7FEFF 		bl	GPIO_ResetBits
  60              	.LVL5:
  61              		.loc 1 27 1 view .LVU9
  62 001a F8E7     		b	.L1
  63              	.L6:
  64              		.align	2
  65              	.L5:
  66 001c 00080048 		.word	1207961600
  67              		.cfi_endproc
  68              	.LFE123:
  70              		.section	.text.LED2_SetValue,"ax",%progbits
  71              		.align	1
  72              		.syntax unified
  73              		.thumb
  74              		.thumb_func
  75              		.fpu fpv4-sp-d16
  77              	LED2_SetValue:
  78              	.LVL6:
  79              	.LFB124:
  28:./dal/led/led_cfg.c **** 
  29:./dal/led/led_cfg.c **** static void LED2_SetValue(uint32_t value)
  30:./dal/led/led_cfg.c **** {
  80              		.loc 1 30 1 is_stmt 1 view -0
  81              		.cfi_startproc
  82              		@ args = 0, pretend = 0, frame = 0
  83              		@ frame_needed = 0, uses_anonymous_args = 0
  84              		.loc 1 30 1 is_stmt 0 view .LVU11
  85 0000 08B5     		push	{r3, lr}
ARM GAS  /tmp/ccv25fCu.s 			page 3


  86              	.LCFI1:
  87              		.cfi_def_cfa_offset 8
  88              		.cfi_offset 3, -8
  89              		.cfi_offset 14, -4
  31:./dal/led/led_cfg.c **** 	if(0 == value)
  90              		.loc 1 31 2 is_stmt 1 view .LVU12
  91              		.loc 1 31 4 is_stmt 0 view .LVU13
  92 0002 30B9     		cbnz	r0, .L8
  32:./dal/led/led_cfg.c **** 	{
  33:./dal/led/led_cfg.c **** 		GPIO_SetBits(LED2_GPIO, LED2_GPIO_PIN);
  93              		.loc 1 33 3 is_stmt 1 view .LVU14
  94 0004 4FF48061 		mov	r1, #1024
  95 0008 4FF09040 		mov	r0, #1207959552
  96              	.LVL7:
  97              		.loc 1 33 3 is_stmt 0 view .LVU15
  98 000c FFF7FEFF 		bl	GPIO_SetBits
  99              	.LVL8:
 100              	.L7:
  34:./dal/led/led_cfg.c **** 	}
  35:./dal/led/led_cfg.c **** 	else
  36:./dal/led/led_cfg.c **** 	{
  37:./dal/led/led_cfg.c **** 		GPIO_ResetBits(LED2_GPIO, LED2_GPIO_PIN);
  38:./dal/led/led_cfg.c **** 	}
  39:./dal/led/led_cfg.c **** }
 101              		.loc 1 39 1 view .LVU16
 102 0010 08BD     		pop	{r3, pc}
 103              	.LVL9:
 104              	.L8:
  37:./dal/led/led_cfg.c **** 	}
 105              		.loc 1 37 3 is_stmt 1 view .LVU17
 106 0012 4FF48061 		mov	r1, #1024
 107 0016 4FF09040 		mov	r0, #1207959552
 108              	.LVL10:
  37:./dal/led/led_cfg.c **** 	}
 109              		.loc 1 37 3 is_stmt 0 view .LVU18
 110 001a FFF7FEFF 		bl	GPIO_ResetBits
 111              	.LVL11:
 112              		.loc 1 39 1 view .LVU19
 113 001e F7E7     		b	.L7
 114              		.cfi_endproc
 115              	.LFE124:
 117              		.section	.text.LED3_SetValue,"ax",%progbits
 118              		.align	1
 119              		.syntax unified
 120              		.thumb
 121              		.thumb_func
 122              		.fpu fpv4-sp-d16
 124              	LED3_SetValue:
 125              	.LVL12:
 126              	.LFB125:
  40:./dal/led/led_cfg.c **** 
  41:./dal/led/led_cfg.c **** static void LED3_SetValue(uint32_t value)
  42:./dal/led/led_cfg.c **** {
 127              		.loc 1 42 1 is_stmt 1 view -0
 128              		.cfi_startproc
 129              		@ args = 0, pretend = 0, frame = 0
 130              		@ frame_needed = 0, uses_anonymous_args = 0
ARM GAS  /tmp/ccv25fCu.s 			page 4


 131              		.loc 1 42 1 is_stmt 0 view .LVU21
 132 0000 08B5     		push	{r3, lr}
 133              	.LCFI2:
 134              		.cfi_def_cfa_offset 8
 135              		.cfi_offset 3, -8
 136              		.cfi_offset 14, -4
  43:./dal/led/led_cfg.c **** 	if(0 == value)
 137              		.loc 1 43 2 is_stmt 1 view .LVU22
 138              		.loc 1 43 4 is_stmt 0 view .LVU23
 139 0002 30B9     		cbnz	r0, .L12
  44:./dal/led/led_cfg.c **** 	{
  45:./dal/led/led_cfg.c **** 		GPIO_SetBits(LED3_GPIO, LED3_GPIO_PIN);
 140              		.loc 1 45 3 is_stmt 1 view .LVU24
 141 0004 4FF40061 		mov	r1, #2048
 142 0008 4FF09040 		mov	r0, #1207959552
 143              	.LVL13:
 144              		.loc 1 45 3 is_stmt 0 view .LVU25
 145 000c FFF7FEFF 		bl	GPIO_SetBits
 146              	.LVL14:
 147              	.L11:
  46:./dal/led/led_cfg.c **** 	}
  47:./dal/led/led_cfg.c **** 	else
  48:./dal/led/led_cfg.c **** 	{
  49:./dal/led/led_cfg.c **** 		GPIO_ResetBits(LED3_GPIO, LED3_GPIO_PIN);
  50:./dal/led/led_cfg.c **** 	}
  51:./dal/led/led_cfg.c **** }
 148              		.loc 1 51 1 view .LVU26
 149 0010 08BD     		pop	{r3, pc}
 150              	.LVL15:
 151              	.L12:
  49:./dal/led/led_cfg.c **** 	}
 152              		.loc 1 49 3 is_stmt 1 view .LVU27
 153 0012 4FF40061 		mov	r1, #2048
 154 0016 4FF09040 		mov	r0, #1207959552
 155              	.LVL16:
  49:./dal/led/led_cfg.c **** 	}
 156              		.loc 1 49 3 is_stmt 0 view .LVU28
 157 001a FFF7FEFF 		bl	GPIO_ResetBits
 158              	.LVL17:
 159              		.loc 1 51 1 view .LVU29
 160 001e F7E7     		b	.L11
 161              		.cfi_endproc
 162              	.LFE125:
 164              		.global	LED3
 165              		.global	LED2
 166              		.global	LED1
 167              		.section	.data.LED1,"aw"
 168              		.align	2
 171              	LED1:
 172 0000 00000000 		.word	LED1_SetValue
 173              		.section	.data.LED2,"aw"
 174              		.align	2
 177              	LED2:
 178 0000 00000000 		.word	LED2_SetValue
 179              		.section	.data.LED3,"aw"
 180              		.align	2
 183              	LED3:
ARM GAS  /tmp/ccv25fCu.s 			page 5


 184 0000 00000000 		.word	LED3_SetValue
 185              		.text
 186              	.Letext0:
 187              		.file 2 "/usr/lib/gcc/arm-none-eabi/10.3.1/include/stdint.h"
 188              		.file 3 "CMSIS/at32f4xx.h"
 189              		.file 4 "./dal/led/led.h"
 190              		.file 5 "./dal/led/led_cfg.h"
 191              		.file 6 "lib/inc/at32f4xx_gpio_ex.h"
ARM GAS  /tmp/ccv25fCu.s 			page 6

