ARM GAS  /tmp/ccDZxMxK.s 			page 1


   1              		.cpu cortex-m4
   2              		.eabi_attribute 27, 1
   3              		.eabi_attribute 28, 1
   4              		.eabi_attribute 20, 1
   5              		.eabi_attribute 21, 1
   6              		.eabi_attribute 23, 3
   7              		.eabi_attribute 24, 1
   8              		.eabi_attribute 25, 1
   9              		.eabi_attribute 26, 1
  10              		.eabi_attribute 30, 1
  11              		.eabi_attribute 34, 1
  12              		.eabi_attribute 18, 4
  13              		.file	"main.c"
  14              		.text
  15              	.Ltext0:
  16              		.cfi_sections	.debug_frame
  17              		.section	.text.LEDTask,"ax",%progbits
  18              		.align	1
  19              		.global	LEDTask
  20              		.arch armv7e-m
  21              		.syntax unified
  22              		.thumb
  23              		.thumb_func
  24              		.fpu fpv4-sp-d16
  26              	LEDTask:
  27              	.LFB131:
  28              		.file 1 "./app/main.c"
   1:./app/main.c  **** #include "main.h"
   2:./app/main.c  **** #include "at32f4xx.h"
   3:./app/main.c  **** 
   4:./app/main.c  **** #include "stdio.h"
   5:./app/main.c  **** 
   6:./app/main.c  **** 
   7:./app/main.c  **** #include "rcc_config.h"
   8:./app/main.c  **** #include "gpio_config.h"
   9:./app/main.c  **** #include "usart_config.h"
  10:./app/main.c  **** #include "dma_config.h"
  11:./app/main.c  **** #include "timer_config.h"
  12:./app/main.c  **** 
  13:./app/main.c  **** 
  14:./app/main.c  **** 
  15:./app/main.c  **** #include "usart_hal_config.h"
  16:./app/main.c  **** #include "i2c_hal_config.h"
  17:./app/main.c  **** #include "simulation_i2c_config.h"
  18:./app/main.c  **** 
  19:./app/main.c  **** 
  20:./app/main.c  **** 
  21:./app/main.c  **** #include "mpu6050_config.h"
  22:./app/main.c  **** #include "bmp280_cfg.h"
  23:./app/main.c  **** #include "spl06_cfg.h"
  24:./app/main.c  **** 
  25:./app/main.c  **** 
  26:./app/main.c  **** #include "led_cfg.h"
  27:./app/main.c  **** #include "remote_data.h"
  28:./app/main.c  **** 
  29:./app/main.c  **** 
  30:./app/main.c  **** #include "remote_task.h"
ARM GAS  /tmp/ccDZxMxK.s 			page 2


  31:./app/main.c  **** #include "quaternion.h"
  32:./app/main.c  **** #include "control.h"
  33:./app/main.c  **** 
  34:./app/main.c  **** 
  35:./app/main.c  **** 
  36:./app/main.c  **** /************************************
  37:./app/main.c  **** 
  38:./app/main.c  **** xPortGetMinimumEverFreeHeapSize();         Ëé∑ÂèñÊõæÁªèÊúÄÂ∞èÂ†ÜÁöÑÂâ©‰ΩôÂ§ßÂ∞è Âçï‰ΩçÂ≠óËäÇ
  39:./app/main.c  **** xPortGetFreeHeapSize();                    Ëé∑ÂèñÂΩìÂâçÂ†ÜÁöÑÂâ©‰ΩôÂ§ßÂ∞è Âçï‰ΩçÂ≠óËäÇ
  40:./app/main.c  **** uxTaskGetStackHighWaterMark(NULL);         Ëé∑ÂèñÂΩìÂâçËøêË°å‰ªªÂä°ÂêØÂä®‰ª•Êù•Ââ©‰ΩôÁöÑÊúÄÂ∞èÂ§ßÂ∞
  41:./app/main.c  **** 
  42:./app/main.c  **** *************************************/
  43:./app/main.c  **** 
  44:./app/main.c  **** 
  45:./app/main.c  **** uint32_t heap_size1;
  46:./app/main.c  **** uint32_t heap_size2;
  47:./app/main.c  **** 
  48:./app/main.c  **** uint32_t stack_size;
  49:./app/main.c  **** 
  50:./app/main.c  **** /*ÈÅ•ÊéßÊï∞ÊçÆ‰º†ËæìÈòüÂàóÂè•ÊüÑ*/
  51:./app/main.c  **** xQueueHandle RemoteDataQueue;
  52:./app/main.c  **** 
  53:./app/main.c  **** 
  54:./app/main.c  **** xQueueHandle BaroAltitudeQueue;
  55:./app/main.c  **** xQueueHandle AltitudeQueue;
  56:./app/main.c  **** xQueueHandle AccQueue;
  57:./app/main.c  **** 
  58:./app/main.c  **** 
  59:./app/main.c  **** 
  60:./app/main.c  **** 
  61:./app/main.c  **** 
  62:./app/main.c  **** /*ÈÅ•ÊéßÂô®Êï∞ÊçÆÊé•Âèó‰ø°Âè∑Âè•ÊüÑ*/
  63:./app/main.c  **** //xSemaphoreHandle remote_read_semaphore;
  64:./app/main.c  **** 
  65:./app/main.c  **** void LEDTask(void * parameters)
  66:./app/main.c  **** {
  29              		.loc 1 66 1 view -0
  30              		.cfi_startproc
  31              		@ Volatile: function does not return.
  32              		@ args = 0, pretend = 0, frame = 0
  33              		@ frame_needed = 0, uses_anonymous_args = 0
  34              	.LVL0:
  35              		.loc 1 66 1 is_stmt 0 view .LVU1
  36 0000 08B5     		push	{r3, lr}
  37              	.LCFI0:
  38              		.cfi_def_cfa_offset 8
  39              		.cfi_offset 3, -8
  40              		.cfi_offset 14, -4
  41              	.LVL1:
  42              	.L2:
  67:./app/main.c  **** 	for(;;)
  43              		.loc 1 67 2 is_stmt 1 discriminator 1 view .LVU2
  68:./app/main.c  **** 	{
  69:./app/main.c  **** 		
  70:./app/main.c  **** 	
  71:./app/main.c  **** 		LED_SetValue(&LED1, 1);
  44              		.loc 1 71 3 discriminator 1 view .LVU3
ARM GAS  /tmp/ccDZxMxK.s 			page 3


  45 0002 094C     		ldr	r4, .L4
  46 0004 0121     		movs	r1, #1
  47 0006 2046     		mov	r0, r4
  48 0008 FFF7FEFF 		bl	LED_SetValue
  49              	.LVL2:
  72:./app/main.c  **** 		vTaskDelay(500);
  50              		.loc 1 72 3 discriminator 1 view .LVU4
  51 000c 4FF4FA70 		mov	r0, #500
  52 0010 FFF7FEFF 		bl	vTaskDelay
  53              	.LVL3:
  73:./app/main.c  **** 		LED_SetValue(&LED1, 0);
  54              		.loc 1 73 3 discriminator 1 view .LVU5
  55 0014 0021     		movs	r1, #0
  56 0016 2046     		mov	r0, r4
  57 0018 FFF7FEFF 		bl	LED_SetValue
  58              	.LVL4:
  74:./app/main.c  **** 		vTaskDelay(500);
  59              		.loc 1 74 3 discriminator 1 view .LVU6
  60 001c 4FF4FA70 		mov	r0, #500
  61 0020 FFF7FEFF 		bl	vTaskDelay
  62              	.LVL5:
  67:./app/main.c  **** 	{
  63              		.loc 1 67 7 discriminator 1 view .LVU7
  64 0024 EDE7     		b	.L2
  65              	.L5:
  66 0026 00BF     		.align	2
  67              	.L4:
  68 0028 00000000 		.word	LED1
  69              		.cfi_endproc
  70              	.LFE131:
  72              		.global	__aeabi_f2d
  73              		.section	.rodata.PrintfTask.str1.4,"aMS",%progbits,1
  74              		.align	2
  75              	.LC0:
  76 0000 643A2025 		.ascii	"d: %f, %f, %f\012\000"
  76      662C2025 
  76      662C2025 
  76      660A00
  77              		.section	.text.PrintfTask,"ax",%progbits
  78              		.align	1
  79              		.global	PrintfTask
  80              		.syntax unified
  81              		.thumb
  82              		.thumb_func
  83              		.fpu fpv4-sp-d16
  85              	PrintfTask:
  86              	.LVL6:
  87              	.LFB133:
  75:./app/main.c  **** 	}
  76:./app/main.c  **** 	
  77:./app/main.c  **** }
  78:./app/main.c  **** 
  79:./app/main.c  **** 
  80:./app/main.c  **** 
  81:./app/main.c  **** int fputc(int ch, FILE *f)
  82:./app/main.c  **** {
  83:./app/main.c  **** 	/* ÂèëÈÄÅ‰∏Ä‰∏™Â≠óËäÇÊï∞ÊçÆÂà∞‰∏≤Âè£ */
ARM GAS  /tmp/ccDZxMxK.s 			page 4


  84:./app/main.c  ****   	//uart_send_byte(UARTx, (uint8_t)ch);
  85:./app/main.c  **** 
  86:./app/main.c  **** 	uint8_t data = (uint8_t)ch;
  87:./app/main.c  ****   	USART_HAL_SendData(&USART1_HAL, &data, 1);
  88:./app/main.c  **** 	return (ch);
  89:./app/main.c  **** }
  90:./app/main.c  **** 
  91:./app/main.c  **** 
  92:./app/main.c  **** void PrintfTask(void * parameters)
  93:./app/main.c  **** {
  88              		.loc 1 93 1 view -0
  89              		.cfi_startproc
  90              		@ Volatile: function does not return.
  91              		@ args = 0, pretend = 0, frame = 16
  92              		@ frame_needed = 0, uses_anonymous_args = 0
  93              		.loc 1 93 1 is_stmt 0 view .LVU9
  94 0000 00B5     		push	{lr}
  95              	.LCFI1:
  96              		.cfi_def_cfa_offset 4
  97              		.cfi_offset 14, -4
  98 0002 89B0     		sub	sp, sp, #36
  99              	.LCFI2:
 100              		.cfi_def_cfa_offset 40
  94:./app/main.c  **** 
  95:./app/main.c  **** 	float baroAltitude = 0;
 101              		.loc 1 95 2 is_stmt 1 view .LVU10
 102              		.loc 1 95 8 is_stmt 0 view .LVU11
 103 0004 0023     		movs	r3, #0
 104 0006 0793     		str	r3, [sp, #28]	@ float
  96:./app/main.c  **** 	float altitude = 0;
 105              		.loc 1 96 2 is_stmt 1 view .LVU12
 106              		.loc 1 96 8 is_stmt 0 view .LVU13
 107 0008 0693     		str	r3, [sp, #24]	@ float
  97:./app/main.c  **** 	float acc = 0;
 108              		.loc 1 97 2 is_stmt 1 view .LVU14
 109              		.loc 1 97 8 is_stmt 0 view .LVU15
 110 000a 0593     		str	r3, [sp, #20]	@ float
 111              	.LVL7:
 112              	.L7:
  98:./app/main.c  **** 	
  99:./app/main.c  **** 	for(;;)
 113              		.loc 1 99 2 is_stmt 1 discriminator 1 view .LVU16
 100:./app/main.c  **** 	{
 101:./app/main.c  **** 		xQueueReceive(BaroAltitudeQueue,&baroAltitude,0);
 114              		.loc 1 101 3 discriminator 1 view .LVU17
 115 000c 0023     		movs	r3, #0
 116 000e 1A46     		mov	r2, r3
 117 0010 07A9     		add	r1, sp, #28
 118 0012 1348     		ldr	r0, .L9
 119 0014 0068     		ldr	r0, [r0]
 120 0016 FFF7FEFF 		bl	xQueueGenericReceive
 121              	.LVL8:
 102:./app/main.c  **** 		xQueueReceive(AltitudeQueue,&altitude,0);
 122              		.loc 1 102 3 discriminator 1 view .LVU18
 123 001a 0023     		movs	r3, #0
 124 001c 1A46     		mov	r2, r3
 125 001e 06A9     		add	r1, sp, #24
ARM GAS  /tmp/ccDZxMxK.s 			page 5


 126 0020 1048     		ldr	r0, .L9+4
 127 0022 0068     		ldr	r0, [r0]
 128 0024 FFF7FEFF 		bl	xQueueGenericReceive
 129              	.LVL9:
 103:./app/main.c  **** 		xQueueReceive(AccQueue,&acc,0);
 130              		.loc 1 103 3 discriminator 1 view .LVU19
 131 0028 0023     		movs	r3, #0
 132 002a 1A46     		mov	r2, r3
 133 002c 05A9     		add	r1, sp, #20
 134 002e 0E48     		ldr	r0, .L9+8
 135 0030 0068     		ldr	r0, [r0]
 136 0032 FFF7FEFF 		bl	xQueueGenericReceive
 137              	.LVL10:
 104:./app/main.c  **** 		
 105:./app/main.c  **** 
 106:./app/main.c  **** 		//printf("d: %f, %f, %f\n", printf_velocity, printf_position, printf_acc);
 107:./app/main.c  **** 		printf("d: %f, %f, %f\n", baroAltitude, altitude, acc);
 138              		.loc 1 107 3 discriminator 1 view .LVU20
 139 0036 0798     		ldr	r0, [sp, #28]	@ float
 140 0038 FFF7FEFF 		bl	__aeabi_f2d
 141              	.LVL11:
 142 003c 0446     		mov	r4, r0
 143 003e 0D46     		mov	r5, r1
 144 0040 0598     		ldr	r0, [sp, #20]	@ float
 145 0042 FFF7FEFF 		bl	__aeabi_f2d
 146              	.LVL12:
 147 0046 CDE90201 		strd	r0, [sp, #8]
 148 004a 0698     		ldr	r0, [sp, #24]	@ float
 149 004c FFF7FEFF 		bl	__aeabi_f2d
 150              	.LVL13:
 151 0050 CDE90001 		strd	r0, [sp]
 152 0054 2246     		mov	r2, r4
 153 0056 2B46     		mov	r3, r5
 154 0058 0448     		ldr	r0, .L9+12
 155 005a FFF7FEFF 		bl	printf
 156              	.LVL14:
  99:./app/main.c  **** 	{
 157              		.loc 1 99 7 discriminator 1 view .LVU21
 158 005e D5E7     		b	.L7
 159              	.L10:
 160              		.align	2
 161              	.L9:
 162 0060 00000000 		.word	.LANCHOR0
 163 0064 00000000 		.word	.LANCHOR1
 164 0068 00000000 		.word	.LANCHOR2
 165 006c 00000000 		.word	.LC0
 166              		.cfi_endproc
 167              	.LFE133:
 169              		.section	.text.fputc,"ax",%progbits
 170              		.align	1
 171              		.global	fputc
 172              		.syntax unified
 173              		.thumb
 174              		.thumb_func
 175              		.fpu fpv4-sp-d16
 177              	fputc:
 178              	.LVL15:
ARM GAS  /tmp/ccDZxMxK.s 			page 6


 179              	.LFB132:
  82:./app/main.c  **** 	/* ÂèëÈÄÅ‰∏Ä‰∏™Â≠óËäÇÊï∞ÊçÆÂà∞‰∏≤Âè£ */
 180              		.loc 1 82 1 view -0
 181              		.cfi_startproc
 182              		@ args = 0, pretend = 0, frame = 8
 183              		@ frame_needed = 0, uses_anonymous_args = 0
  82:./app/main.c  **** 	/* ÂèëÈÄÅ‰∏Ä‰∏™Â≠óËäÇÊï∞ÊçÆÂà∞‰∏≤Âè£ */
 184              		.loc 1 82 1 is_stmt 0 view .LVU23
 185 0000 10B5     		push	{r4, lr}
 186              	.LCFI3:
 187              		.cfi_def_cfa_offset 8
 188              		.cfi_offset 4, -8
 189              		.cfi_offset 14, -4
 190 0002 82B0     		sub	sp, sp, #8
 191              	.LCFI4:
 192              		.cfi_def_cfa_offset 16
 193 0004 0446     		mov	r4, r0
  86:./app/main.c  ****   	USART_HAL_SendData(&USART1_HAL, &data, 1);
 194              		.loc 1 86 2 is_stmt 1 view .LVU24
  86:./app/main.c  ****   	USART_HAL_SendData(&USART1_HAL, &data, 1);
 195              		.loc 1 86 10 is_stmt 0 view .LVU25
 196 0006 8DF80700 		strb	r0, [sp, #7]
  87:./app/main.c  **** 	return (ch);
 197              		.loc 1 87 4 is_stmt 1 view .LVU26
 198 000a 0122     		movs	r2, #1
 199 000c 0DF10701 		add	r1, sp, #7
 200              	.LVL16:
  87:./app/main.c  **** 	return (ch);
 201              		.loc 1 87 4 is_stmt 0 view .LVU27
 202 0010 0248     		ldr	r0, .L13
 203              	.LVL17:
  87:./app/main.c  **** 	return (ch);
 204              		.loc 1 87 4 view .LVU28
 205 0012 FFF7FEFF 		bl	USART_HAL_SendData
 206              	.LVL18:
  88:./app/main.c  **** }
 207              		.loc 1 88 2 is_stmt 1 view .LVU29
  89:./app/main.c  **** 
 208              		.loc 1 89 1 is_stmt 0 view .LVU30
 209 0016 2046     		mov	r0, r4
 210 0018 02B0     		add	sp, sp, #8
 211              	.LCFI5:
 212              		.cfi_def_cfa_offset 8
 213              		@ sp needed
 214 001a 10BD     		pop	{r4, pc}
 215              	.LVL19:
 216              	.L14:
  89:./app/main.c  **** 
 217              		.loc 1 89 1 view .LVU31
 218              		.align	2
 219              	.L13:
 220 001c 00000000 		.word	USART1_HAL
 221              		.cfi_endproc
 222              	.LFE132:
 224              		.section	.text.I2C_DevAddrTest,"ax",%progbits
 225              		.align	1
 226              		.global	I2C_DevAddrTest
ARM GAS  /tmp/ccDZxMxK.s 			page 7


 227              		.syntax unified
 228              		.thumb
 229              		.thumb_func
 230              		.fpu fpv4-sp-d16
 232              	I2C_DevAddrTest:
 233              	.LFB134:
 108:./app/main.c  **** 		
 109:./app/main.c  **** 		//USART_HAL_SendData(&USART1_HAL, "hello world\n", 12);
 110:./app/main.c  **** 
 111:./app/main.c  **** 		//printf("hello world\n");
 112:./app/main.c  **** 
 113:./app/main.c  **** 
 114:./app/main.c  **** 		//stack_size = uxTaskGetStackHighWaterMark(NULL);
 115:./app/main.c  **** 		//vTaskDelay(10);
 116:./app/main.c  **** 		 
 117:./app/main.c  **** 	}
 118:./app/main.c  **** 
 119:./app/main.c  **** }
 120:./app/main.c  **** 
 121:./app/main.c  **** /*
 122:./app/main.c  **** 
 123:./app/main.c  **** __asm void _disable_irq()
 124:./app/main.c  **** {
 125:./app/main.c  **** 
 126:./app/main.c  **** 	MOV R0,#1
 127:./app/main.c  **** 	MSR PRIMASK,R0
 128:./app/main.c  **** 
 129:./app/main.c  **** }
 130:./app/main.c  **** __asm void _enable_irq()
 131:./app/main.c  **** {
 132:./app/main.c  **** 	cpsid i
 133:./app/main.c  **** }
 134:./app/main.c  **** */
 135:./app/main.c  **** 
 136:./app/main.c  **** 
 137:./app/main.c  **** void I2C_DevAddrTest()
 138:./app/main.c  **** {
 234              		.loc 1 138 1 is_stmt 1 view -0
 235              		.cfi_startproc
 236              		@ args = 0, pretend = 0, frame = 8
 237              		@ frame_needed = 0, uses_anonymous_args = 0
 238 0000 10B5     		push	{r4, lr}
 239              	.LCFI6:
 240              		.cfi_def_cfa_offset 8
 241              		.cfi_offset 4, -8
 242              		.cfi_offset 14, -4
 243 0002 84B0     		sub	sp, sp, #16
 244              	.LCFI7:
 245              		.cfi_def_cfa_offset 24
 139:./app/main.c  **** 	uint8_t addr = 0;
 246              		.loc 1 139 2 view .LVU33
 247              	.LVL20:
 140:./app/main.c  **** 
 141:./app/main.c  **** 	uint8_t reg = 0;
 248              		.loc 1 141 2 view .LVU34
 249              		.loc 1 141 10 is_stmt 0 view .LVU35
 250 0004 0024     		movs	r4, #0
ARM GAS  /tmp/ccDZxMxK.s 			page 8


 251 0006 8DF80F40 		strb	r4, [sp, #15]
 142:./app/main.c  **** 	uint8_t readData = 0;
 252              		.loc 1 142 2 is_stmt 1 view .LVU36
 253              		.loc 1 142 10 is_stmt 0 view .LVU37
 254 000a 8DF80E40 		strb	r4, [sp, #14]
 143:./app/main.c  **** 
 144:./app/main.c  **** 	E_I2C_ERROR ret;
 255              		.loc 1 144 2 is_stmt 1 view .LVU38
 145:./app/main.c  **** 
 146:./app/main.c  **** 	for(addr = 0;addr < 0x7f;addr++)
 256              		.loc 1 146 2 view .LVU39
 257              		.loc 1 146 2 is_stmt 0 view .LVU40
 258 000e 0CE0     		b	.L16
 259              	.LVL21:
 260              	.L17:
 147:./app/main.c  **** 	{
 148:./app/main.c  **** 		ret = SimulationI2C_ReadData(&SimulationI2C1, addr, &reg, 1, &readData, 1);
 261              		.loc 1 148 3 is_stmt 1 view .LVU41
 262              		.loc 1 148 9 is_stmt 0 view .LVU42
 263 0010 0123     		movs	r3, #1
 264 0012 0193     		str	r3, [sp, #4]
 265 0014 0DF10E02 		add	r2, sp, #14
 266 0018 0092     		str	r2, [sp]
 267 001a 0DF10F02 		add	r2, sp, #15
 268 001e 2146     		mov	r1, r4
 269 0020 0448     		ldr	r0, .L19
 270 0022 FFF7FEFF 		bl	SimulationI2C_ReadData
 271              	.LVL22:
 149:./app/main.c  **** 		//ret = I2C_HalReadData(&I2C_Dev1, addr, &reg, 1, &readData, 1);
 150:./app/main.c  **** 
 151:./app/main.c  **** 		if(E_I2C_ERROR_OK == ret)
 272              		.loc 1 151 3 is_stmt 1 view .LVU43
 146:./app/main.c  **** 	{
 273              		.loc 1 146 27 view .LVU44
 146:./app/main.c  **** 	{
 274              		.loc 1 146 31 is_stmt 0 view .LVU45
 275 0026 0134     		adds	r4, r4, #1
 276              	.LVL23:
 146:./app/main.c  **** 	{
 277              		.loc 1 146 31 view .LVU46
 278 0028 E4B2     		uxtb	r4, r4
 279              	.LVL24:
 280              	.L16:
 146:./app/main.c  **** 	{
 281              		.loc 1 146 15 is_stmt 1 discriminator 1 view .LVU47
 146:./app/main.c  **** 	{
 282              		.loc 1 146 2 is_stmt 0 discriminator 1 view .LVU48
 283 002a 7E2C     		cmp	r4, #126
 284 002c F0D9     		bls	.L17
 152:./app/main.c  **** 		{
 153:./app/main.c  **** 			ret = 0;
 154:./app/main.c  **** 		}
 155:./app/main.c  **** 	}
 156:./app/main.c  **** }
 285              		.loc 1 156 1 view .LVU49
 286 002e 04B0     		add	sp, sp, #16
 287              	.LCFI8:
ARM GAS  /tmp/ccDZxMxK.s 			page 9


 288              		.cfi_def_cfa_offset 8
 289              		@ sp needed
 290 0030 10BD     		pop	{r4, pc}
 291              	.LVL25:
 292              	.L20:
 293              		.loc 1 156 1 view .LVU50
 294 0032 00BF     		.align	2
 295              	.L19:
 296 0034 00000000 		.word	SimulationI2C1
 297              		.cfi_endproc
 298              	.LFE134:
 300              		.section	.rodata.main.str1.4,"aMS",%progbits,1
 301              		.align	2
 302              	.LC1:
 303 0000 6C656400 		.ascii	"led\000"
 304              		.align	2
 305              	.LC2:
 306 0004 7072696E 		.ascii	"printf\000"
 306      746600
 307 000b 00       		.align	2
 308              	.LC3:
 309 000c 72656D6F 		.ascii	"remote\000"
 309      746500
 310 0013 00       		.align	2
 311              	.LC4:
 312 0014 636F6E74 		.ascii	"control\000"
 312      726F6C00 
 313              		.section	.text.main,"ax",%progbits
 314              		.align	1
 315              		.global	main
 316              		.syntax unified
 317              		.thumb
 318              		.thumb_func
 319              		.fpu fpv4-sp-d16
 321              	main:
 322              	.LFB135:
 157:./app/main.c  **** 
 158:./app/main.c  **** 
 159:./app/main.c  **** 
 160:./app/main.c  **** int main(void)
 161:./app/main.c  **** {
 323              		.loc 1 161 1 is_stmt 1 view -0
 324              		.cfi_startproc
 325              		@ Volatile: function does not return.
 326              		@ args = 0, pretend = 0, frame = 0
 327              		@ frame_needed = 0, uses_anonymous_args = 0
 328 0000 00B5     		push	{lr}
 329              	.LCFI9:
 330              		.cfi_def_cfa_offset 4
 331              		.cfi_offset 14, -4
 332 0002 83B0     		sub	sp, sp, #12
 333              	.LCFI10:
 334              		.cfi_def_cfa_offset 16
 162:./app/main.c  **** 	/*‰∏≠Êñ≠‰ºòÂÖàÁ∫ßÂàÜÁªÑ*/
 163:./app/main.c  **** 	NVIC_PriorityGroupConfig(NVIC_PriorityGroup_4);
 335              		.loc 1 163 2 view .LVU52
 336 0004 4FF44070 		mov	r0, #768
ARM GAS  /tmp/ccDZxMxK.s 			page 10


 337 0008 FFF7FEFF 		bl	NVIC_PriorityGroupConfig
 338              	.LVL26:
 164:./app/main.c  **** 
 165:./app/main.c  **** 	RCC_ConfigInitAll();
 339              		.loc 1 165 2 view .LVU53
 340 000c FFF7FEFF 		bl	RCC_ConfigInitAll
 341              	.LVL27:
 166:./app/main.c  **** 	GPIO_ConfigInitAll();
 342              		.loc 1 166 2 view .LVU54
 343 0010 FFF7FEFF 		bl	GPIO_ConfigInitAll
 344              	.LVL28:
 167:./app/main.c  **** 	DMA_ConfigInitAll();
 345              		.loc 1 167 2 view .LVU55
 346 0014 FFF7FEFF 		bl	DMA_ConfigInitAll
 347              	.LVL29:
 168:./app/main.c  **** 	Timer_ConfigInitAll();
 348              		.loc 1 168 2 view .LVU56
 349 0018 FFF7FEFF 		bl	Timer_ConfigInitAll
 350              	.LVL30:
 169:./app/main.c  **** 	USART_ConfigInitAll();
 351              		.loc 1 169 2 view .LVU57
 352 001c FFF7FEFF 		bl	USART_ConfigInitAll
 353              	.LVL31:
 170:./app/main.c  **** 	
 171:./app/main.c  **** 
 172:./app/main.c  **** 	/*Êª§Ê≥¢ÂèÇÊï∞ÂàùÂßãÂåñ*/
 173:./app/main.c  **** 	FilterInit();
 354              		.loc 1 173 2 view .LVU58
 355 0020 FFF7FEFF 		bl	FilterInit
 356              	.LVL32:
 174:./app/main.c  **** 
 175:./app/main.c  **** 	/*MPU6050ÂàùÂßãÂåñ*/
 176:./app/main.c  **** 	//MPU6050_Init(&MPU6050);
 177:./app/main.c  **** 
 178:./app/main.c  **** 
 179:./app/main.c  **** 	/*Ê∞îÂéãËÆ°ÂàùÂßãÂåñ*/
 180:./app/main.c  **** 	//BMP280_Init(&BMP280);
 181:./app/main.c  **** 	SPL06_Init(&SPL06);
 357              		.loc 1 181 2 view .LVU59
 358 0024 2448     		ldr	r0, .L24
 359 0026 FFF7FEFF 		bl	SPL06_Init
 360              	.LVL33:
 182:./app/main.c  **** 	//I2C_DevAddrTest();
 183:./app/main.c  **** 	
 184:./app/main.c  **** 
 185:./app/main.c  **** 	
 186:./app/main.c  **** 	/*ÂàõÂª∫ÈÅ•ÊéßÊï∞ÊçÆÊ∂àÊÅØÈòüÂàó*/
 187:./app/main.c  **** 	RemoteDataQueue = xQueueCreate(1, sizeof(RemoteData_t));
 361              		.loc 1 187 2 view .LVU60
 362              		.loc 1 187 20 is_stmt 0 view .LVU61
 363 002a 0022     		movs	r2, #0
 364 002c 0C21     		movs	r1, #12
 365 002e 0120     		movs	r0, #1
 366 0030 FFF7FEFF 		bl	xQueueGenericCreate
 367              	.LVL34:
 368              		.loc 1 187 18 view .LVU62
 369 0034 214B     		ldr	r3, .L24+4
ARM GAS  /tmp/ccDZxMxK.s 			page 11


 370 0036 1860     		str	r0, [r3]
 188:./app/main.c  **** 
 189:./app/main.c  **** 	BaroAltitudeQueue = xQueueCreate(1,sizeof(float));
 371              		.loc 1 189 2 is_stmt 1 view .LVU63
 372              		.loc 1 189 22 is_stmt 0 view .LVU64
 373 0038 0022     		movs	r2, #0
 374 003a 0421     		movs	r1, #4
 375 003c 0120     		movs	r0, #1
 376 003e FFF7FEFF 		bl	xQueueGenericCreate
 377              	.LVL35:
 378              		.loc 1 189 20 view .LVU65
 379 0042 1F4B     		ldr	r3, .L24+8
 380 0044 1860     		str	r0, [r3]
 190:./app/main.c  **** 	AltitudeQueue = xQueueCreate(1,sizeof(float));
 381              		.loc 1 190 2 is_stmt 1 view .LVU66
 382              		.loc 1 190 18 is_stmt 0 view .LVU67
 383 0046 0022     		movs	r2, #0
 384 0048 0421     		movs	r1, #4
 385 004a 0120     		movs	r0, #1
 386 004c FFF7FEFF 		bl	xQueueGenericCreate
 387              	.LVL36:
 388              		.loc 1 190 16 view .LVU68
 389 0050 1C4B     		ldr	r3, .L24+12
 390 0052 1860     		str	r0, [r3]
 191:./app/main.c  **** 	AccQueue = xQueueCreate(1,sizeof(float));
 391              		.loc 1 191 2 is_stmt 1 view .LVU69
 392              		.loc 1 191 13 is_stmt 0 view .LVU70
 393 0054 0022     		movs	r2, #0
 394 0056 0421     		movs	r1, #4
 395 0058 0120     		movs	r0, #1
 396 005a FFF7FEFF 		bl	xQueueGenericCreate
 397              	.LVL37:
 398              		.loc 1 191 11 view .LVU71
 399 005e 1A4B     		ldr	r3, .L24+16
 400 0060 1860     		str	r0, [r3]
 192:./app/main.c  **** 
 193:./app/main.c  **** 	/*ÂàõÂª∫ÈÅ•ÊéßÊé•Âèó‰ø°Âè∑*/
 194:./app/main.c  **** 	//remote_read_semaphore = xSemaphoreCreateBinary();
 195:./app/main.c  **** 
 196:./app/main.c  **** 
 197:./app/main.c  **** 	/*LED‰ªªÂä°ÂàõÂª∫*/
 198:./app/main.c  **** 	xTaskCreate(LEDTask,
 401              		.loc 1 198 2 is_stmt 1 view .LVU72
 402 0062 0024     		movs	r4, #0
 403 0064 0194     		str	r4, [sp, #4]
 404 0066 0223     		movs	r3, #2
 405 0068 0093     		str	r3, [sp]
 406 006a 2346     		mov	r3, r4
 407 006c 2022     		movs	r2, #32
 408 006e 1749     		ldr	r1, .L24+20
 409 0070 1748     		ldr	r0, .L24+24
 410 0072 FFF7FEFF 		bl	xTaskCreate
 411              	.LVL38:
 199:./app/main.c  **** 				"led",
 200:./app/main.c  **** 				32,
 201:./app/main.c  **** 				NULL,
 202:./app/main.c  **** 				2,
ARM GAS  /tmp/ccDZxMxK.s 			page 12


 203:./app/main.c  **** 				NULL);
 204:./app/main.c  **** 
 205:./app/main.c  **** 	/*ÊâìÂç∞‰ªªÂä°ÂàõÂª∫*/
 206:./app/main.c  **** 	xTaskCreate(PrintfTask,
 412              		.loc 1 206 2 view .LVU73
 413 0076 0194     		str	r4, [sp, #4]
 414 0078 0123     		movs	r3, #1
 415 007a 0093     		str	r3, [sp]
 416 007c 2346     		mov	r3, r4
 417 007e 4FF48072 		mov	r2, #256
 418 0082 1449     		ldr	r1, .L24+28
 419 0084 1448     		ldr	r0, .L24+32
 420 0086 FFF7FEFF 		bl	xTaskCreate
 421              	.LVL39:
 207:./app/main.c  **** 				"printf",
 208:./app/main.c  **** 				256,
 209:./app/main.c  **** 				NULL,
 210:./app/main.c  **** 				1,
 211:./app/main.c  **** 				NULL);
 212:./app/main.c  **** 
 213:./app/main.c  **** 	/*ÈÅ•ÊéßÂô®Êé•Âèó‰ªªÂä°ÂàõÂª∫*/
 214:./app/main.c  **** 	xTaskCreate(RemoteTask,
 422              		.loc 1 214 2 view .LVU74
 423 008a 0194     		str	r4, [sp, #4]
 424 008c 0423     		movs	r3, #4
 425 008e 0093     		str	r3, [sp]
 426 0090 2346     		mov	r3, r4
 427 0092 4FF48072 		mov	r2, #256
 428 0096 1149     		ldr	r1, .L24+36
 429 0098 1148     		ldr	r0, .L24+40
 430 009a FFF7FEFF 		bl	xTaskCreate
 431              	.LVL40:
 215:./app/main.c  **** 				"remote",
 216:./app/main.c  **** 				256,
 217:./app/main.c  **** 				NULL,
 218:./app/main.c  **** 				4,
 219:./app/main.c  **** 				NULL);
 220:./app/main.c  **** 
 221:./app/main.c  **** 	/*ÂßøÊÄÅÊéßÂà∂‰ªªÂä°ÂàõÂª∫*/
 222:./app/main.c  **** 	xTaskCreate(ControlTask,
 432              		.loc 1 222 2 view .LVU75
 433 009e 0194     		str	r4, [sp, #4]
 434 00a0 0523     		movs	r3, #5
 435 00a2 0093     		str	r3, [sp]
 436 00a4 2346     		mov	r3, r4
 437 00a6 4FF40072 		mov	r2, #512
 438 00aa 0E49     		ldr	r1, .L24+44
 439 00ac 0E48     		ldr	r0, .L24+48
 440 00ae FFF7FEFF 		bl	xTaskCreate
 441              	.LVL41:
 223:./app/main.c  **** 				"control",
 224:./app/main.c  **** 				512,
 225:./app/main.c  **** 				NULL,
 226:./app/main.c  **** 				5,
 227:./app/main.c  **** 				NULL);
 228:./app/main.c  **** 
 229:./app/main.c  **** 
ARM GAS  /tmp/ccDZxMxK.s 			page 13


 230:./app/main.c  **** 	/*ÂêØÂä®Ë∞ÉÂ∫¶Âô®*/		
 231:./app/main.c  **** 	vTaskStartScheduler();
 442              		.loc 1 231 2 view .LVU76
 443 00b2 FFF7FEFF 		bl	vTaskStartScheduler
 444              	.LVL42:
 445              	.L22:
 232:./app/main.c  **** 		
 233:./app/main.c  **** 	for(;;)
 446              		.loc 1 233 2 discriminator 1 view .LVU77
 234:./app/main.c  **** 	{
 235:./app/main.c  **** 		
 236:./app/main.c  **** 	}
 447              		.loc 1 236 2 discriminator 1 view .LVU78
 233:./app/main.c  **** 	{
 448              		.loc 1 233 7 discriminator 1 view .LVU79
 449 00b6 FEE7     		b	.L22
 450              	.L25:
 451              		.align	2
 452              	.L24:
 453 00b8 00000000 		.word	SPL06
 454 00bc 00000000 		.word	.LANCHOR3
 455 00c0 00000000 		.word	.LANCHOR0
 456 00c4 00000000 		.word	.LANCHOR1
 457 00c8 00000000 		.word	.LANCHOR2
 458 00cc 00000000 		.word	.LC1
 459 00d0 00000000 		.word	LEDTask
 460 00d4 04000000 		.word	.LC2
 461 00d8 00000000 		.word	PrintfTask
 462 00dc 0C000000 		.word	.LC3
 463 00e0 00000000 		.word	RemoteTask
 464 00e4 14000000 		.word	.LC4
 465 00e8 00000000 		.word	ControlTask
 466              		.cfi_endproc
 467              	.LFE135:
 469              		.global	AccQueue
 470              		.global	AltitudeQueue
 471              		.global	BaroAltitudeQueue
 472              		.global	RemoteDataQueue
 473              		.global	stack_size
 474              		.global	heap_size2
 475              		.global	heap_size1
 476              		.section	.bss.AccQueue,"aw",%nobits
 477              		.align	2
 478              		.set	.LANCHOR2,. + 0
 481              	AccQueue:
 482 0000 00000000 		.space	4
 483              		.section	.bss.AltitudeQueue,"aw",%nobits
 484              		.align	2
 485              		.set	.LANCHOR1,. + 0
 488              	AltitudeQueue:
 489 0000 00000000 		.space	4
 490              		.section	.bss.BaroAltitudeQueue,"aw",%nobits
 491              		.align	2
 492              		.set	.LANCHOR0,. + 0
 495              	BaroAltitudeQueue:
 496 0000 00000000 		.space	4
 497              		.section	.bss.RemoteDataQueue,"aw",%nobits
ARM GAS  /tmp/ccDZxMxK.s 			page 14


 498              		.align	2
 499              		.set	.LANCHOR3,. + 0
 502              	RemoteDataQueue:
 503 0000 00000000 		.space	4
 504              		.section	.bss.heap_size1,"aw",%nobits
 505              		.align	2
 508              	heap_size1:
 509 0000 00000000 		.space	4
 510              		.section	.bss.heap_size2,"aw",%nobits
 511              		.align	2
 514              	heap_size2:
 515 0000 00000000 		.space	4
 516              		.section	.bss.stack_size,"aw",%nobits
 517              		.align	2
 520              	stack_size:
 521 0000 00000000 		.space	4
 522              		.text
 523              	.Letext0:
 524              		.file 2 "/usr/lib/gcc/arm-none-eabi/10.3.1/include/stdint.h"
 525              		.file 3 "freeRTOS/GCC/portmacro.h"
 526              		.file 4 "freeRTOS/include/queue.h"
 527              		.file 5 "./app/main.h"
 528              		.file 6 "/usr/lib/gcc/arm-none-eabi/10.3.1/include/stddef.h"
 529              		.file 7 "/usr/include/newlib/sys/_types.h"
 530              		.file 8 "/usr/include/newlib/sys/reent.h"
 531              		.file 9 "/usr/include/newlib/sys/lock.h"
 532              		.file 10 "/usr/include/newlib/stdio.h"
 533              		.file 11 "hal/usart/usart_hal.h"
 534              		.file 12 "hal/usart/usart_hal_config.h"
 535              		.file 13 "hal/i2c/i2c_hal.h"
 536              		.file 14 "hal/simulation_i2c/simulation_i2c.h"
 537              		.file 15 "hal/simulation_i2c/simulation_i2c_config.h"
 538              		.file 16 "dev/spl06/spl06.h"
 539              		.file 17 "dev/spl06/spl06_cfg.h"
 540              		.file 18 "dal/led/led.h"
 541              		.file 19 "dal/led/led_cfg.h"
 542              		.file 20 "dal/remote/remote_data.h"
 543              		.file 21 "lib/inc/misc.h"
 544              		.file 22 "hardware/rcc/rcc_config.h"
 545              		.file 23 "hardware/gpio/gpio_config.h"
 546              		.file 24 "hardware/dma/dma_config.h"
 547              		.file 25 "hardware/timer/timer_config.h"
 548              		.file 26 "hardware/usart/usart_config.h"
 549              		.file 27 "app/control/control.h"
 550              		.file 28 "freeRTOS/include/task.h"
ARM GAS  /tmp/ccDZxMxK.s 			page 15

