ARM GAS  /tmp/ccEka3uK.s 			page 1


   1              		.cpu cortex-m4
   2              		.eabi_attribute 27, 1
   3              		.eabi_attribute 28, 1
   4              		.eabi_attribute 20, 1
   5              		.eabi_attribute 21, 1
   6              		.eabi_attribute 23, 3
   7              		.eabi_attribute 24, 1
   8              		.eabi_attribute 25, 1
   9              		.eabi_attribute 26, 1
  10              		.eabi_attribute 30, 1
  11              		.eabi_attribute 34, 1
  12              		.eabi_attribute 18, 4
  13              		.file	"misc.c"
  14              		.text
  15              	.Ltext0:
  16              		.cfi_sections	.debug_frame
  17              		.section	.text.NVIC_PriorityGroupConfig,"ax",%progbits
  18              		.align	1
  19              		.global	NVIC_PriorityGroupConfig
  20              		.arch armv7e-m
  21              		.syntax unified
  22              		.thumb
  23              		.thumb_func
  24              		.fpu fpv4-sp-d16
  26              	NVIC_PriorityGroupConfig:
  27              	.LVL0:
  28              	.LFB123:
  29              		.file 1 "./lib/src/misc.c"
   1:./lib/src/misc.c **** /**
   2:./lib/src/misc.c ****   **************************************************************************
   3:./lib/src/misc.c ****   * File   : misc.c
   4:./lib/src/misc.c ****   * Version: V1.2.4
   5:./lib/src/misc.c ****   * Date   : 2020-08-26
   6:./lib/src/misc.c ****   * Brief  : at32f4xx MISC source file
   7:./lib/src/misc.c ****   **************************************************************************
   8:./lib/src/misc.c ****   */
   9:./lib/src/misc.c **** 
  10:./lib/src/misc.c **** 
  11:./lib/src/misc.c **** /* Includes ------------------------------------------------------------------*/
  12:./lib/src/misc.c **** #include "misc.h"
  13:./lib/src/misc.c **** 
  14:./lib/src/misc.c **** /** @addtogroup at32f4xx_StdPeriph_Driver
  15:./lib/src/misc.c ****   * @{
  16:./lib/src/misc.c ****   */
  17:./lib/src/misc.c **** 
  18:./lib/src/misc.c **** /** @defgroup MISC
  19:./lib/src/misc.c ****   * @brief MISC driver modules
  20:./lib/src/misc.c ****   * @{
  21:./lib/src/misc.c ****   */
  22:./lib/src/misc.c **** 
  23:./lib/src/misc.c **** /** @defgroup MISC_Private_TypesDefinitions
  24:./lib/src/misc.c ****   * @{
  25:./lib/src/misc.c ****   */
  26:./lib/src/misc.c **** 
  27:./lib/src/misc.c **** /**
  28:./lib/src/misc.c ****   * @}
  29:./lib/src/misc.c ****   */
ARM GAS  /tmp/ccEka3uK.s 			page 2


  30:./lib/src/misc.c **** 
  31:./lib/src/misc.c **** /** @defgroup MISC_Private_Defines
  32:./lib/src/misc.c ****   * @{
  33:./lib/src/misc.c ****   */
  34:./lib/src/misc.c **** 
  35:./lib/src/misc.c **** #define AIRCR_VECTKEY_MASK    ((uint32_t)0x05FA0000)
  36:./lib/src/misc.c **** /**
  37:./lib/src/misc.c ****   * @}
  38:./lib/src/misc.c ****   */
  39:./lib/src/misc.c **** 
  40:./lib/src/misc.c **** /** @defgroup MISC_Private_Macros
  41:./lib/src/misc.c ****   * @{
  42:./lib/src/misc.c ****   */
  43:./lib/src/misc.c **** 
  44:./lib/src/misc.c **** /**
  45:./lib/src/misc.c ****   * @}
  46:./lib/src/misc.c ****   */
  47:./lib/src/misc.c **** 
  48:./lib/src/misc.c **** /** @defgroup MISC_Private_Variables
  49:./lib/src/misc.c ****   * @{
  50:./lib/src/misc.c ****   */
  51:./lib/src/misc.c **** 
  52:./lib/src/misc.c **** /**
  53:./lib/src/misc.c ****   * @}
  54:./lib/src/misc.c ****   */
  55:./lib/src/misc.c **** 
  56:./lib/src/misc.c **** /** @defgroup MISC_Private_FunctionPrototypes
  57:./lib/src/misc.c ****   * @{
  58:./lib/src/misc.c ****   */
  59:./lib/src/misc.c **** 
  60:./lib/src/misc.c **** /**
  61:./lib/src/misc.c ****   * @}
  62:./lib/src/misc.c ****   */
  63:./lib/src/misc.c **** 
  64:./lib/src/misc.c **** /** @defgroup MISC_Private_Functions
  65:./lib/src/misc.c ****   * @{
  66:./lib/src/misc.c ****   */
  67:./lib/src/misc.c **** 
  68:./lib/src/misc.c **** /**
  69:./lib/src/misc.c ****   * @brief  Configures the priority grouping: pre-emption priority and subpriority.
  70:./lib/src/misc.c ****   * @param  NVIC_PriorityGroup: specifies the priority grouping bits length.
  71:./lib/src/misc.c ****   *   This parameter can be one of the following values:
  72:./lib/src/misc.c ****   *     @arg NVIC_PriorityGroup_0: 0 bits for pre-emption priority
  73:./lib/src/misc.c ****   *                                4 bits for subpriority
  74:./lib/src/misc.c ****   *     @arg NVIC_PriorityGroup_1: 1 bits for pre-emption priority
  75:./lib/src/misc.c ****   *                                3 bits for subpriority
  76:./lib/src/misc.c ****   *     @arg NVIC_PriorityGroup_2: 2 bits for pre-emption priority
  77:./lib/src/misc.c ****   *                                2 bits for subpriority
  78:./lib/src/misc.c ****   *     @arg NVIC_PriorityGroup_3: 3 bits for pre-emption priority
  79:./lib/src/misc.c ****   *                                1 bits for subpriority
  80:./lib/src/misc.c ****   *     @arg NVIC_PriorityGroup_4: 4 bits for pre-emption priority
  81:./lib/src/misc.c ****   *                                0 bits for subpriority
  82:./lib/src/misc.c ****   * @retval None
  83:./lib/src/misc.c ****   */
  84:./lib/src/misc.c **** void NVIC_PriorityGroupConfig(uint32_t NVIC_PriorityGroup)
  85:./lib/src/misc.c **** {
  30              		.loc 1 85 1 view -0
ARM GAS  /tmp/ccEka3uK.s 			page 3


  31              		.cfi_startproc
  32              		@ args = 0, pretend = 0, frame = 0
  33              		@ frame_needed = 0, uses_anonymous_args = 0
  34              		@ link register save eliminated.
  86:./lib/src/misc.c ****   /* Check the parameters */
  87:./lib/src/misc.c ****   assert_param(IS_NVIC_PRIORITY_GROUP(NVIC_PriorityGroup));
  35              		.loc 1 87 3 view .LVU1
  88:./lib/src/misc.c **** 
  89:./lib/src/misc.c ****   /* Set the PRIGROUP[10:8] bits according to NVIC_PriorityGroup value */
  90:./lib/src/misc.c ****   SCB->AIRCR = AIRCR_VECTKEY_MASK | NVIC_PriorityGroup;
  36              		.loc 1 90 3 view .LVU2
  37              		.loc 1 90 35 is_stmt 0 view .LVU3
  38 0000 40F0BF60 		orr	r0, r0, #100139008
  39              	.LVL1:
  40              		.loc 1 90 35 view .LVU4
  41 0004 40F40030 		orr	r0, r0, #131072
  42              		.loc 1 90 14 view .LVU5
  43 0008 014B     		ldr	r3, .L2
  44 000a D860     		str	r0, [r3, #12]
  91:./lib/src/misc.c **** }
  45              		.loc 1 91 1 view .LVU6
  46 000c 7047     		bx	lr
  47              	.L3:
  48 000e 00BF     		.align	2
  49              	.L2:
  50 0010 00ED00E0 		.word	-536810240
  51              		.cfi_endproc
  52              	.LFE123:
  54              		.section	.text.NVIC_Init,"ax",%progbits
  55              		.align	1
  56              		.global	NVIC_Init
  57              		.syntax unified
  58              		.thumb
  59              		.thumb_func
  60              		.fpu fpv4-sp-d16
  62              	NVIC_Init:
  63              	.LVL2:
  64              	.LFB124:
  92:./lib/src/misc.c **** 
  93:./lib/src/misc.c **** /**
  94:./lib/src/misc.c ****   * @brief  Initializes the NVIC peripheral according to the specified
  95:./lib/src/misc.c ****   *         parameters in the NVIC_InitStruct.
  96:./lib/src/misc.c ****   * @param  NVIC_InitStruct: pointer to a NVIC_InitType structure that contains
  97:./lib/src/misc.c ****   *         the configuration information for the specified NVIC peripheral.
  98:./lib/src/misc.c ****   * @retval None
  99:./lib/src/misc.c ****   */
 100:./lib/src/misc.c **** void NVIC_Init(NVIC_InitType* NVIC_InitStruct)
 101:./lib/src/misc.c **** {
  65              		.loc 1 101 1 is_stmt 1 view -0
  66              		.cfi_startproc
  67              		@ args = 0, pretend = 0, frame = 0
  68              		@ frame_needed = 0, uses_anonymous_args = 0
  69              		@ link register save eliminated.
 102:./lib/src/misc.c ****   uint32_t tmppriority = 0x00, tmppre = 0x00, tmpsub = 0x0F;
  70              		.loc 1 102 3 view .LVU8
 103:./lib/src/misc.c **** 
 104:./lib/src/misc.c ****   /* Check the parameters */
ARM GAS  /tmp/ccEka3uK.s 			page 4


 105:./lib/src/misc.c ****   assert_param(IS_FUNCTIONAL_STATE(NVIC_InitStruct->NVIC_IRQChannelCmd));
  71              		.loc 1 105 3 view .LVU9
 106:./lib/src/misc.c ****   assert_param(IS_NVIC_PREEMPTION_PRIORITY(NVIC_InitStruct->NVIC_IRQChannelPreemptionPriority));
  72              		.loc 1 106 3 view .LVU10
 107:./lib/src/misc.c ****   assert_param(IS_NVIC_SUB_PRIORITY(NVIC_InitStruct->NVIC_IRQChannelSubPriority));
  73              		.loc 1 107 3 view .LVU11
 108:./lib/src/misc.c **** 
 109:./lib/src/misc.c ****   if (NVIC_InitStruct->NVIC_IRQChannelCmd != DISABLE)
  74              		.loc 1 109 3 view .LVU12
  75              		.loc 1 109 22 is_stmt 0 view .LVU13
  76 0000 C378     		ldrb	r3, [r0, #3]	@ zero_extendqisi2
  77              		.loc 1 109 6 view .LVU14
  78 0002 FBB1     		cbz	r3, .L5
 110:./lib/src/misc.c ****   {
 111:./lib/src/misc.c ****     /* Compute the Corresponding IRQ Priority --------------------------------*/
 112:./lib/src/misc.c ****     tmppriority = (0x700 - ((SCB->AIRCR) & (uint32_t)0x700)) >> 0x08;
  79              		.loc 1 112 5 is_stmt 1 view .LVU15
  80              		.loc 1 112 33 is_stmt 0 view .LVU16
  81 0004 154B     		ldr	r3, .L7
  82 0006 DA68     		ldr	r2, [r3, #12]
  83              		.loc 1 112 26 view .LVU17
  84 0008 D243     		mvns	r2, r2
  85              		.loc 1 112 17 view .LVU18
  86 000a C2F30222 		ubfx	r2, r2, #8, #3
  87              	.LVL3:
 113:./lib/src/misc.c ****     tmppre = (0x4 - tmppriority);
  88              		.loc 1 113 5 is_stmt 1 view .LVU19
  89              		.loc 1 113 12 is_stmt 0 view .LVU20
  90 000e C2F1040C 		rsb	ip, r2, #4
  91              	.LVL4:
 114:./lib/src/misc.c ****     tmpsub = tmpsub >> tmppriority;
  92              		.loc 1 114 5 is_stmt 1 view .LVU21
  93              		.loc 1 114 12 is_stmt 0 view .LVU22
  94 0012 0F23     		movs	r3, #15
  95 0014 23FA02F2 		lsr	r2, r3, r2
  96              	.LVL5:
 115:./lib/src/misc.c **** 
 116:./lib/src/misc.c ****     tmppriority = (uint32_t)NVIC_InitStruct->NVIC_IRQChannelPreemptionPriority << tmppre;
  97              		.loc 1 116 5 is_stmt 1 view .LVU23
  98              		.loc 1 116 44 is_stmt 0 view .LVU24
  99 0018 4178     		ldrb	r1, [r0, #1]	@ zero_extendqisi2
 100              		.loc 1 116 17 view .LVU25
 101 001a 01FA0CF1 		lsl	r1, r1, ip
 102              	.LVL6:
 117:./lib/src/misc.c ****     tmppriority |=  NVIC_InitStruct->NVIC_IRQChannelSubPriority & tmpsub;
 103              		.loc 1 117 5 is_stmt 1 view .LVU26
 104              		.loc 1 117 36 is_stmt 0 view .LVU27
 105 001e 8378     		ldrb	r3, [r0, #2]	@ zero_extendqisi2
 106              		.loc 1 117 65 view .LVU28
 107 0020 1340     		ands	r3, r3, r2
 108              		.loc 1 117 17 view .LVU29
 109 0022 0B43     		orrs	r3, r3, r1
 110              	.LVL7:
 118:./lib/src/misc.c ****     tmppriority = tmppriority << 0x04;
 111              		.loc 1 118 5 is_stmt 1 view .LVU30
 112              		.loc 1 118 17 is_stmt 0 view .LVU31
 113 0024 1B01     		lsls	r3, r3, #4
ARM GAS  /tmp/ccEka3uK.s 			page 5


 114              	.LVL8:
 119:./lib/src/misc.c **** 
 120:./lib/src/misc.c ****     NVIC->IP[NVIC_InitStruct->NVIC_IRQChannel] = tmppriority;
 115              		.loc 1 120 5 is_stmt 1 view .LVU32
 116              		.loc 1 120 29 is_stmt 0 view .LVU33
 117 0026 0278     		ldrb	r2, [r0]	@ zero_extendqisi2
 118              	.LVL9:
 119              		.loc 1 120 48 view .LVU34
 120 0028 DBB2     		uxtb	r3, r3
 121              	.LVL10:
 122              		.loc 1 120 48 view .LVU35
 123 002a 0D49     		ldr	r1, .L7+4
 124 002c 0A44     		add	r2, r2, r1
 125 002e 82F80033 		strb	r3, [r2, #768]
 121:./lib/src/misc.c **** 
 122:./lib/src/misc.c ****     /* Enable the Selected IRQ Channels --------------------------------------*/
 123:./lib/src/misc.c ****     NVIC->ISER[NVIC_InitStruct->NVIC_IRQChannel >> 0x05] =
 126              		.loc 1 123 5 is_stmt 1 view .LVU36
 124:./lib/src/misc.c ****       (uint32_t)0x01 << (NVIC_InitStruct->NVIC_IRQChannel & (uint8_t)0x1F);
 127              		.loc 1 124 41 is_stmt 0 view .LVU37
 128 0032 0378     		ldrb	r3, [r0]	@ zero_extendqisi2
 129              		.loc 1 124 59 view .LVU38
 130 0034 03F01F00 		and	r0, r3, #31
 131              	.LVL11:
 123:./lib/src/misc.c ****       (uint32_t)0x01 << (NVIC_InitStruct->NVIC_IRQChannel & (uint8_t)0x1F);
 132              		.loc 1 123 49 view .LVU39
 133 0038 5B09     		lsrs	r3, r3, #5
 134              		.loc 1 124 22 view .LVU40
 135 003a 0122     		movs	r2, #1
 136 003c 8240     		lsls	r2, r2, r0
 123:./lib/src/misc.c ****       (uint32_t)0x01 << (NVIC_InitStruct->NVIC_IRQChannel & (uint8_t)0x1F);
 137              		.loc 1 123 58 view .LVU41
 138 003e 41F82320 		str	r2, [r1, r3, lsl #2]
 139 0042 7047     		bx	lr
 140              	.LVL12:
 141              	.L5:
 125:./lib/src/misc.c ****   }
 126:./lib/src/misc.c ****   else
 127:./lib/src/misc.c ****   {
 128:./lib/src/misc.c ****     /* Disable the Selected IRQ Channels -------------------------------------*/
 129:./lib/src/misc.c ****     NVIC->ICER[NVIC_InitStruct->NVIC_IRQChannel >> 0x05] =
 142              		.loc 1 129 5 is_stmt 1 view .LVU42
 130:./lib/src/misc.c ****       (uint32_t)0x01 << (NVIC_InitStruct->NVIC_IRQChannel & (uint8_t)0x1F);
 143              		.loc 1 130 41 is_stmt 0 view .LVU43
 144 0044 0378     		ldrb	r3, [r0]	@ zero_extendqisi2
 145              		.loc 1 130 59 view .LVU44
 146 0046 03F01F01 		and	r1, r3, #31
 129:./lib/src/misc.c ****       (uint32_t)0x01 << (NVIC_InitStruct->NVIC_IRQChannel & (uint8_t)0x1F);
 147              		.loc 1 129 49 view .LVU45
 148 004a 5B09     		lsrs	r3, r3, #5
 149              		.loc 1 130 22 view .LVU46
 150 004c 0122     		movs	r2, #1
 151 004e 8A40     		lsls	r2, r2, r1
 129:./lib/src/misc.c ****       (uint32_t)0x01 << (NVIC_InitStruct->NVIC_IRQChannel & (uint8_t)0x1F);
 152              		.loc 1 129 58 view .LVU47
 153 0050 2033     		adds	r3, r3, #32
 154 0052 0349     		ldr	r1, .L7+4
ARM GAS  /tmp/ccEka3uK.s 			page 6


 155 0054 41F82320 		str	r2, [r1, r3, lsl #2]
 131:./lib/src/misc.c ****   }
 132:./lib/src/misc.c **** }
 156              		.loc 1 132 1 view .LVU48
 157 0058 7047     		bx	lr
 158              	.L8:
 159 005a 00BF     		.align	2
 160              	.L7:
 161 005c 00ED00E0 		.word	-536810240
 162 0060 00E100E0 		.word	-536813312
 163              		.cfi_endproc
 164              	.LFE124:
 166              		.section	.text.NVIC_SetVectorTable,"ax",%progbits
 167              		.align	1
 168              		.global	NVIC_SetVectorTable
 169              		.syntax unified
 170              		.thumb
 171              		.thumb_func
 172              		.fpu fpv4-sp-d16
 174              	NVIC_SetVectorTable:
 175              	.LVL13:
 176              	.LFB125:
 133:./lib/src/misc.c **** 
 134:./lib/src/misc.c **** /**
 135:./lib/src/misc.c ****   * @brief  Sets the vector table location and Offset.
 136:./lib/src/misc.c ****   * @param  NVIC_VectTab: specifies if the vector table is in RAM or FLASH memory.
 137:./lib/src/misc.c ****   *   This parameter can be one of the following values:
 138:./lib/src/misc.c ****   *     @arg NVIC_VectTab_RAM
 139:./lib/src/misc.c ****   *     @arg NVIC_VectTab_FLASH
 140:./lib/src/misc.c ****   * @param  Offset: Vector Table base offset field. This value must be a multiple
 141:./lib/src/misc.c ****   *         of 0x200.
 142:./lib/src/misc.c ****   * @retval None
 143:./lib/src/misc.c ****   */
 144:./lib/src/misc.c **** void NVIC_SetVectorTable(uint32_t NVIC_VectTab, uint32_t Offset)
 145:./lib/src/misc.c **** {
 177              		.loc 1 145 1 is_stmt 1 view -0
 178              		.cfi_startproc
 179              		@ args = 0, pretend = 0, frame = 0
 180              		@ frame_needed = 0, uses_anonymous_args = 0
 181              		@ link register save eliminated.
 146:./lib/src/misc.c ****   /* Check the parameters */
 147:./lib/src/misc.c ****   assert_param(IS_NVIC_VECTTAB(NVIC_VectTab));
 182              		.loc 1 147 3 view .LVU50
 148:./lib/src/misc.c ****   assert_param(IS_NVIC_OFFSET(Offset));
 183              		.loc 1 148 3 view .LVU51
 149:./lib/src/misc.c **** 
 150:./lib/src/misc.c ****   SCB->VTOR = NVIC_VectTab | (Offset & (uint32_t)0x1FFFFF80);
 184              		.loc 1 150 3 view .LVU52
 185              		.loc 1 150 38 is_stmt 0 view .LVU53
 186 0000 21F06041 		bic	r1, r1, #-536870912
 187              	.LVL14:
 188              		.loc 1 150 38 view .LVU54
 189 0004 21F07F01 		bic	r1, r1, #127
 190              		.loc 1 150 28 view .LVU55
 191 0008 0143     		orrs	r1, r1, r0
 192              		.loc 1 150 13 view .LVU56
 193 000a 014B     		ldr	r3, .L10
ARM GAS  /tmp/ccEka3uK.s 			page 7


 194 000c 9960     		str	r1, [r3, #8]
 151:./lib/src/misc.c **** }
 195              		.loc 1 151 1 view .LVU57
 196 000e 7047     		bx	lr
 197              	.L11:
 198              		.align	2
 199              	.L10:
 200 0010 00ED00E0 		.word	-536810240
 201              		.cfi_endproc
 202              	.LFE125:
 204              		.section	.text.NVIC_SystemLPConfig,"ax",%progbits
 205              		.align	1
 206              		.global	NVIC_SystemLPConfig
 207              		.syntax unified
 208              		.thumb
 209              		.thumb_func
 210              		.fpu fpv4-sp-d16
 212              	NVIC_SystemLPConfig:
 213              	.LVL15:
 214              	.LFB126:
 152:./lib/src/misc.c **** 
 153:./lib/src/misc.c **** /**
 154:./lib/src/misc.c ****   * @brief  Selects the condition for the system to enter low power mode.
 155:./lib/src/misc.c ****   * @param  LowPowerMode: Specifies the new mode for the system to enter low power mode.
 156:./lib/src/misc.c ****   *   This parameter can be one of the following values:
 157:./lib/src/misc.c ****   *     @arg NVIC_LP_SEVONPEND
 158:./lib/src/misc.c ****   *     @arg NVIC_LP_SLEEPDEEP
 159:./lib/src/misc.c ****   *     @arg NVIC_LP_SLEEPONEXIT
 160:./lib/src/misc.c ****   * @param  NewState: new state of LP condition. This parameter can be: ENABLE or DISABLE.
 161:./lib/src/misc.c ****   * @retval None
 162:./lib/src/misc.c ****   */
 163:./lib/src/misc.c **** void NVIC_SystemLPConfig(uint8_t LowPowerMode, FunctionalState NewState)
 164:./lib/src/misc.c **** {
 215              		.loc 1 164 1 is_stmt 1 view -0
 216              		.cfi_startproc
 217              		@ args = 0, pretend = 0, frame = 0
 218              		@ frame_needed = 0, uses_anonymous_args = 0
 219              		@ link register save eliminated.
 165:./lib/src/misc.c ****   /* Check the parameters */
 166:./lib/src/misc.c ****   assert_param(IS_NVIC_LP(LowPowerMode));
 220              		.loc 1 166 3 view .LVU59
 167:./lib/src/misc.c ****   assert_param(IS_FUNCTIONAL_STATE(NewState));
 221              		.loc 1 167 3 view .LVU60
 168:./lib/src/misc.c **** 
 169:./lib/src/misc.c ****   if (NewState != DISABLE)
 222              		.loc 1 169 3 view .LVU61
 223              		.loc 1 169 6 is_stmt 0 view .LVU62
 224 0000 21B1     		cbz	r1, .L13
 170:./lib/src/misc.c ****   {
 171:./lib/src/misc.c ****     SCB->SCR |= LowPowerMode;
 225              		.loc 1 171 5 is_stmt 1 view .LVU63
 226              		.loc 1 171 14 is_stmt 0 view .LVU64
 227 0002 054B     		ldr	r3, .L15
 228 0004 1A69     		ldr	r2, [r3, #16]
 229 0006 1043     		orrs	r0, r0, r2
 230              	.LVL16:
 231              		.loc 1 171 14 view .LVU65
ARM GAS  /tmp/ccEka3uK.s 			page 8


 232 0008 1861     		str	r0, [r3, #16]
 233 000a 7047     		bx	lr
 234              	.LVL17:
 235              	.L13:
 172:./lib/src/misc.c ****   }
 173:./lib/src/misc.c ****   else
 174:./lib/src/misc.c ****   {
 175:./lib/src/misc.c ****     SCB->SCR &= (uint32_t)(~(uint32_t)LowPowerMode);
 236              		.loc 1 175 5 is_stmt 1 view .LVU66
 237              		.loc 1 175 14 is_stmt 0 view .LVU67
 238 000c 024A     		ldr	r2, .L15
 239 000e 1369     		ldr	r3, [r2, #16]
 240 0010 23EA0000 		bic	r0, r3, r0
 241              	.LVL18:
 242              		.loc 1 175 14 view .LVU68
 243 0014 1061     		str	r0, [r2, #16]
 176:./lib/src/misc.c ****   }
 177:./lib/src/misc.c **** }
 244              		.loc 1 177 1 view .LVU69
 245 0016 7047     		bx	lr
 246              	.L16:
 247              		.align	2
 248              	.L15:
 249 0018 00ED00E0 		.word	-536810240
 250              		.cfi_endproc
 251              	.LFE126:
 253              		.section	.text.SysTick_CLKSourceConfig,"ax",%progbits
 254              		.align	1
 255              		.global	SysTick_CLKSourceConfig
 256              		.syntax unified
 257              		.thumb
 258              		.thumb_func
 259              		.fpu fpv4-sp-d16
 261              	SysTick_CLKSourceConfig:
 262              	.LVL19:
 263              	.LFB127:
 178:./lib/src/misc.c **** 
 179:./lib/src/misc.c **** /**
 180:./lib/src/misc.c ****   * @brief  Configures the SysTick clock source.
 181:./lib/src/misc.c ****   * @param  SysTick_CLKSource: specifies the SysTick clock source.
 182:./lib/src/misc.c ****   *   This parameter can be one of the following values:
 183:./lib/src/misc.c ****   *     @arg SysTick_CLKSource_HCLK_Div8: AHB clock divided by 8 selected as SysTick clock source.
 184:./lib/src/misc.c ****   *     @arg SysTick_CLKSource_HCLK: AHB clock selected as SysTick clock source.
 185:./lib/src/misc.c ****   * @retval None
 186:./lib/src/misc.c ****   */
 187:./lib/src/misc.c **** void SysTick_CLKSourceConfig(uint32_t SysTick_CLKSource)
 188:./lib/src/misc.c **** {
 264              		.loc 1 188 1 is_stmt 1 view -0
 265              		.cfi_startproc
 266              		@ args = 0, pretend = 0, frame = 0
 267              		@ frame_needed = 0, uses_anonymous_args = 0
 268              		@ link register save eliminated.
 189:./lib/src/misc.c ****   /* Check the parameters */
 190:./lib/src/misc.c ****   assert_param(IS_SYSTICK_CLK_SOURCE(SysTick_CLKSource));
 269              		.loc 1 190 3 view .LVU71
 191:./lib/src/misc.c **** 
 192:./lib/src/misc.c ****   if (SysTick_CLKSource == SysTick_CLKSource_HCLK)
ARM GAS  /tmp/ccEka3uK.s 			page 9


 270              		.loc 1 192 3 view .LVU72
 271              		.loc 1 192 6 is_stmt 0 view .LVU73
 272 0000 0428     		cmp	r0, #4
 273 0002 06D0     		beq	.L20
 193:./lib/src/misc.c ****   {
 194:./lib/src/misc.c ****     SysTick->CTRL |= SysTick_CLKSource_HCLK;
 195:./lib/src/misc.c ****   }
 196:./lib/src/misc.c ****   else
 197:./lib/src/misc.c ****   {
 198:./lib/src/misc.c ****     SysTick->CTRL &= SysTick_CLKSource_HCLK_Div8;
 274              		.loc 1 198 5 is_stmt 1 view .LVU74
 275              		.loc 1 198 19 is_stmt 0 view .LVU75
 276 0004 4FF0E022 		mov	r2, #-536813568
 277 0008 1369     		ldr	r3, [r2, #16]
 278 000a 23F00403 		bic	r3, r3, #4
 279 000e 1361     		str	r3, [r2, #16]
 199:./lib/src/misc.c ****   }
 200:./lib/src/misc.c **** }
 280              		.loc 1 200 1 view .LVU76
 281 0010 7047     		bx	lr
 282              	.L20:
 194:./lib/src/misc.c ****   }
 283              		.loc 1 194 5 is_stmt 1 view .LVU77
 194:./lib/src/misc.c ****   }
 284              		.loc 1 194 19 is_stmt 0 view .LVU78
 285 0012 4FF0E022 		mov	r2, #-536813568
 286 0016 1369     		ldr	r3, [r2, #16]
 287 0018 43F00403 		orr	r3, r3, #4
 288 001c 1361     		str	r3, [r2, #16]
 289 001e 7047     		bx	lr
 290              		.cfi_endproc
 291              	.LFE127:
 293              		.text
 294              	.Letext0:
 295              		.file 2 "/usr/lib/gcc/arm-none-eabi/10.3.1/include/stdint.h"
 296              		.file 3 "CMSIS/core_cm4.h"
 297              		.file 4 "CMSIS/at32f4xx.h"
 298              		.file 5 "lib/inc/misc.h"
ARM GAS  /tmp/ccEka3uK.s 			page 10

