ARM GAS  /tmp/ccDG1SGN.s 			page 1


   1              		.cpu cortex-m4
   2              		.eabi_attribute 27, 1
   3              		.eabi_attribute 28, 1
   4              		.eabi_attribute 20, 1
   5              		.eabi_attribute 21, 1
   6              		.eabi_attribute 23, 3
   7              		.eabi_attribute 24, 1
   8              		.eabi_attribute 25, 1
   9              		.eabi_attribute 26, 1
  10              		.eabi_attribute 30, 1
  11              		.eabi_attribute 34, 1
  12              		.eabi_attribute 18, 4
  13              		.file	"pid.c"
  14              		.text
  15              	.Ltext0:
  16              		.cfi_sections	.debug_frame
  17              		.section	.text.PID_Limit,"ax",%progbits
  18              		.align	1
  19              		.arch armv7e-m
  20              		.syntax unified
  21              		.thumb
  22              		.thumb_func
  23              		.fpu fpv4-sp-d16
  25              	PID_Limit:
  26              	.LVL0:
  27              	.LFB123:
  28              		.file 1 "./app/pid/pid.c"
   1:./app/pid/pid.c **** #include "pid.h"
   2:./app/pid/pid.c **** 
   3:./app/pid/pid.c **** //限幅
   4:./app/pid/pid.c **** static PID_Base_t PID_Limit(PID_Base_t value, PID_Base_t min, PID_Base_t max)
   5:./app/pid/pid.c **** {
  29              		.loc 1 5 1 view -0
  30              		.cfi_startproc
  31              		@ args = 0, pretend = 0, frame = 0
  32              		@ frame_needed = 0, uses_anonymous_args = 0
  33              		@ link register save eliminated.
   6:./app/pid/pid.c **** 	if(value < min)
  34              		.loc 1 6 2 view .LVU1
  35              		.loc 1 6 4 is_stmt 0 view .LVU2
  36 0000 B4EEE00A 		vcmpe.f32	s0, s1
  37 0004 F1EE10FA 		vmrs	APSR_nzcv, FPSCR
  38 0008 07D4     		bmi	.L4
   7:./app/pid/pid.c **** 	{
   8:./app/pid/pid.c **** 		return min;
   9:./app/pid/pid.c **** 	}
  10:./app/pid/pid.c **** 	else if(value > max)
  39              		.loc 1 10 7 is_stmt 1 view .LVU3
  40              		.loc 1 10 9 is_stmt 0 view .LVU4
  41 000a B4EEC10A 		vcmpe.f32	s0, s2
  42 000e F1EE10FA 		vmrs	APSR_nzcv, FPSCR
  43 0012 04DD     		ble	.L1
  11:./app/pid/pid.c **** 	{
  12:./app/pid/pid.c **** 		return max;
  44              		.loc 1 12 10 view .LVU5
  45 0014 B0EE410A 		vmov.f32	s0, s2
  46              	.LVL1:
ARM GAS  /tmp/ccDG1SGN.s 			page 2


  47              		.loc 1 12 10 view .LVU6
  48 0018 7047     		bx	lr
  49              	.LVL2:
  50              	.L4:
   8:./app/pid/pid.c **** 	}
  51              		.loc 1 8 10 view .LVU7
  52 001a B0EE600A 		vmov.f32	s0, s1
  53              	.LVL3:
  54              	.L1:
  13:./app/pid/pid.c **** 	}
  14:./app/pid/pid.c **** 	else
  15:./app/pid/pid.c **** 	{
  16:./app/pid/pid.c **** 		return value;
  17:./app/pid/pid.c **** 	}
  18:./app/pid/pid.c **** }
  55              		.loc 1 18 1 view .LVU8
  56 001e 7047     		bx	lr
  57              		.cfi_endproc
  58              	.LFE123:
  60              		.section	.text.PD_Control,"ax",%progbits
  61              		.align	1
  62              		.global	PD_Control
  63              		.syntax unified
  64              		.thumb
  65              		.thumb_func
  66              		.fpu fpv4-sp-d16
  68              	PD_Control:
  69              	.LVL4:
  70              	.LFB124:
  19:./app/pid/pid.c **** 
  20:./app/pid/pid.c **** 
  21:./app/pid/pid.c **** 
  22:./app/pid/pid.c **** PID_Base_t PD_Control(PID_t * const pid, PID_Base_t deviation)
  23:./app/pid/pid.c **** {
  71              		.loc 1 23 1 is_stmt 1 view -0
  72              		.cfi_startproc
  73              		@ args = 0, pretend = 0, frame = 0
  74              		@ frame_needed = 0, uses_anonymous_args = 0
  24:./app/pid/pid.c **** 	PID_Base_t out;
  75              		.loc 1 24 2 view .LVU10
  25:./app/pid/pid.c **** 	PID_Base_t dItem;
  76              		.loc 1 25 2 view .LVU11
  26:./app/pid/pid.c **** 
  27:./app/pid/pid.c **** 	if(NULL == pid)
  77              		.loc 1 27 2 view .LVU12
  78              		.loc 1 27 4 is_stmt 0 view .LVU13
  79 0000 08B3     		cbz	r0, .L11
  23:./app/pid/pid.c **** 	PID_Base_t out;
  80              		.loc 1 23 1 view .LVU14
  81 0002 10B5     		push	{r4, lr}
  82              	.LCFI0:
  83              		.cfi_def_cfa_offset 8
  84              		.cfi_offset 4, -8
  85              		.cfi_offset 14, -4
  86 0004 2DED028B 		vpush.64	{d8}
  87              	.LCFI1:
  88              		.cfi_def_cfa_offset 16
ARM GAS  /tmp/ccDG1SGN.s 			page 3


  89              		.cfi_offset 80, -16
  90              		.cfi_offset 81, -12
  91 0008 B0EE408A 		vmov.f32	s16, s0
  92 000c 0446     		mov	r4, r0
  28:./app/pid/pid.c **** 	{
  29:./app/pid/pid.c **** 		return 0;
  30:./app/pid/pid.c **** 	}
  31:./app/pid/pid.c **** 
  32:./app/pid/pid.c **** 	dItem = deviation - pid->LastDeviation;
  93              		.loc 1 32 2 is_stmt 1 view .LVU15
  94              		.loc 1 32 25 is_stmt 0 view .LVU16
  95 000e D0ED037A 		vldr.32	s15, [r0, #12]
  96              		.loc 1 32 8 view .LVU17
  97 0012 30EE670A 		vsub.f32	s0, s0, s15
  98              	.LVL5:
  33:./app/pid/pid.c **** 
  34:./app/pid/pid.c **** 	if(NULL != pid->DFilterFunc)
  99              		.loc 1 34 2 is_stmt 1 view .LVU18
 100              		.loc 1 34 16 is_stmt 0 view .LVU19
 101 0016 436A     		ldr	r3, [r0, #36]
 102              		.loc 1 34 4 view .LVU20
 103 0018 03B1     		cbz	r3, .L10
  35:./app/pid/pid.c **** 	{
  36:./app/pid/pid.c **** 		dItem = pid->DFilterFunc(dItem);
 104              		.loc 1 36 3 is_stmt 1 view .LVU21
 105              		.loc 1 36 11 is_stmt 0 view .LVU22
 106 001a 9847     		blx	r3
 107              	.LVL6:
 108              	.L10:
  37:./app/pid/pid.c **** 	}
  38:./app/pid/pid.c **** 	
  39:./app/pid/pid.c **** 	out = pid->P * deviation + pid->D * dItem;
 109              		.loc 1 39 2 is_stmt 1 view .LVU23
 110              		.loc 1 39 11 is_stmt 0 view .LVU24
 111 001c 94ED007A 		vldr.32	s14, [r4]
 112              		.loc 1 39 15 view .LVU25
 113 0020 27EE087A 		vmul.f32	s14, s14, s16
 114              		.loc 1 39 32 view .LVU26
 115 0024 D4ED027A 		vldr.32	s15, [r4, #8]
 116              		.loc 1 39 36 view .LVU27
 117 0028 27EE800A 		vmul.f32	s0, s15, s0
 118              	.LVL7:
  40:./app/pid/pid.c **** 	
  41:./app/pid/pid.c **** 	out = PID_Limit(out, pid->OutMin, pid->OutMax);
 119              		.loc 1 41 2 is_stmt 1 view .LVU28
 120              		.loc 1 41 8 is_stmt 0 view .LVU29
 121 002c 94ED081A 		vldr.32	s2, [r4, #32]
 122 0030 D4ED070A 		vldr.32	s1, [r4, #28]
 123 0034 37EE000A 		vadd.f32	s0, s14, s0
 124              	.LVL8:
 125              		.loc 1 41 8 view .LVU30
 126 0038 FFF7FEFF 		bl	PID_Limit
 127              	.LVL9:
  42:./app/pid/pid.c **** 
  43:./app/pid/pid.c **** 	pid->LastDeviation = deviation;
 128              		.loc 1 43 2 is_stmt 1 view .LVU31
 129              		.loc 1 43 21 is_stmt 0 view .LVU32
ARM GAS  /tmp/ccDG1SGN.s 			page 4


 130 003c 84ED038A 		vstr.32	s16, [r4, #12]
  44:./app/pid/pid.c **** 	
  45:./app/pid/pid.c **** 	return out;
 131              		.loc 1 45 2 is_stmt 1 view .LVU33
  46:./app/pid/pid.c **** }
 132              		.loc 1 46 1 is_stmt 0 view .LVU34
 133 0040 BDEC028B 		vldm	sp!, {d8}
 134              	.LCFI2:
 135              		.cfi_restore 80
 136              		.cfi_restore 81
 137              		.cfi_def_cfa_offset 8
 138              	.LVL10:
 139              		.loc 1 46 1 view .LVU35
 140 0044 10BD     		pop	{r4, pc}
 141              	.LVL11:
 142              	.L11:
 143              	.LCFI3:
 144              		.cfi_def_cfa_offset 0
 145              		.cfi_restore 4
 146              		.cfi_restore 14
  29:./app/pid/pid.c **** 	}
 147              		.loc 1 29 10 view .LVU36
 148 0046 9FED010A 		vldr.32	s0, .L16
 149              	.LVL12:
 150              		.loc 1 46 1 view .LVU37
 151 004a 7047     		bx	lr
 152              	.L17:
 153              		.align	2
 154              	.L16:
 155 004c 00000000 		.word	0
 156              		.cfi_endproc
 157              	.LFE124:
 159              		.section	.text.PI_Control,"ax",%progbits
 160              		.align	1
 161              		.global	PI_Control
 162              		.syntax unified
 163              		.thumb
 164              		.thumb_func
 165              		.fpu fpv4-sp-d16
 167              	PI_Control:
 168              	.LVL13:
 169              	.LFB125:
  47:./app/pid/pid.c **** 
  48:./app/pid/pid.c **** PID_Base_t PI_Control(PID_t * const pid, PID_Base_t deviation)
  49:./app/pid/pid.c **** {
 170              		.loc 1 49 1 is_stmt 1 view -0
 171              		.cfi_startproc
 172              		@ args = 0, pretend = 0, frame = 0
 173              		@ frame_needed = 0, uses_anonymous_args = 0
  50:./app/pid/pid.c **** 	PID_Base_t out;
 174              		.loc 1 50 2 view .LVU39
  51:./app/pid/pid.c **** 
  52:./app/pid/pid.c **** 	if(NULL == pid)
 175              		.loc 1 52 2 view .LVU40
 176              		.loc 1 52 4 is_stmt 0 view .LVU41
 177 0000 30B3     		cbz	r0, .L20
  49:./app/pid/pid.c **** 	PID_Base_t out;
ARM GAS  /tmp/ccDG1SGN.s 			page 5


 178              		.loc 1 49 1 view .LVU42
 179 0002 10B5     		push	{r4, lr}
 180              	.LCFI4:
 181              		.cfi_def_cfa_offset 8
 182              		.cfi_offset 4, -8
 183              		.cfi_offset 14, -4
 184 0004 2DED028B 		vpush.64	{d8}
 185              	.LCFI5:
 186              		.cfi_def_cfa_offset 16
 187              		.cfi_offset 80, -16
 188              		.cfi_offset 81, -12
 189 0008 B0EE408A 		vmov.f32	s16, s0
 190 000c 0446     		mov	r4, r0
  53:./app/pid/pid.c **** 	{
  54:./app/pid/pid.c **** 		return 0;
  55:./app/pid/pid.c **** 	}
  56:./app/pid/pid.c **** 	
  57:./app/pid/pid.c **** 	pid->ISum += pid->I * deviation;
 191              		.loc 1 57 2 is_stmt 1 view .LVU43
 192              		.loc 1 57 18 is_stmt 0 view .LVU44
 193 000e D0ED017A 		vldr.32	s15, [r0, #4]
 194              		.loc 1 57 22 view .LVU45
 195 0012 67EE807A 		vmul.f32	s15, s15, s0
 196              		.loc 1 57 12 view .LVU46
 197 0016 90ED040A 		vldr.32	s0, [r0, #16]
 198              	.LVL14:
 199              		.loc 1 57 12 view .LVU47
 200 001a 37EE800A 		vadd.f32	s0, s15, s0
 201 001e 80ED040A 		vstr.32	s0, [r0, #16]
  58:./app/pid/pid.c **** 	pid->ISum = float_range(pid->ISum, pid->ISumMin, pid->ISumMax);
 202              		.loc 1 58 2 is_stmt 1 view .LVU48
 203              		.loc 1 58 14 is_stmt 0 view .LVU49
 204 0022 90ED061A 		vldr.32	s2, [r0, #24]
 205 0026 D0ED050A 		vldr.32	s1, [r0, #20]
 206 002a FFF7FEFF 		bl	float_range
 207              	.LVL15:
 208              		.loc 1 58 12 view .LVU50
 209 002e 84ED040A 		vstr.32	s0, [r4, #16]
  59:./app/pid/pid.c **** 	
  60:./app/pid/pid.c **** 	out = pid->P * deviation + pid->ISum;
 210              		.loc 1 60 2 is_stmt 1 view .LVU51
 211              		.loc 1 60 11 is_stmt 0 view .LVU52
 212 0032 D4ED007A 		vldr.32	s15, [r4]
 213              		.loc 1 60 15 view .LVU53
 214 0036 27EE888A 		vmul.f32	s16, s15, s16
 215              	.LVL16:
  61:./app/pid/pid.c **** 	out = PID_Limit(out, pid->OutMin, pid->OutMax);
 216              		.loc 1 61 2 is_stmt 1 view .LVU54
 217              		.loc 1 61 8 is_stmt 0 view .LVU55
 218 003a 94ED081A 		vldr.32	s2, [r4, #32]
 219 003e D4ED070A 		vldr.32	s1, [r4, #28]
 220 0042 30EE080A 		vadd.f32	s0, s0, s16
 221              	.LVL17:
 222              		.loc 1 61 8 view .LVU56
 223 0046 FFF7FEFF 		bl	PID_Limit
 224              	.LVL18:
  62:./app/pid/pid.c **** 
ARM GAS  /tmp/ccDG1SGN.s 			page 6


  63:./app/pid/pid.c **** 	return out;
 225              		.loc 1 63 2 is_stmt 1 view .LVU57
  64:./app/pid/pid.c **** }
 226              		.loc 1 64 1 is_stmt 0 view .LVU58
 227 004a BDEC028B 		vldm	sp!, {d8}
 228              	.LCFI6:
 229              		.cfi_restore 80
 230              		.cfi_restore 81
 231              		.cfi_def_cfa_offset 8
 232 004e 10BD     		pop	{r4, pc}
 233              	.LVL19:
 234              	.L20:
 235              	.LCFI7:
 236              		.cfi_def_cfa_offset 0
 237              		.cfi_restore 4
 238              		.cfi_restore 14
  54:./app/pid/pid.c **** 	}
 239              		.loc 1 54 10 view .LVU59
 240 0050 9FED010A 		vldr.32	s0, .L25
 241              	.LVL20:
 242              		.loc 1 64 1 view .LVU60
 243 0054 7047     		bx	lr
 244              	.L26:
 245 0056 00BF     		.align	2
 246              	.L25:
 247 0058 00000000 		.word	0
 248              		.cfi_endproc
 249              	.LFE125:
 251              		.section	.text.PID_Control,"ax",%progbits
 252              		.align	1
 253              		.global	PID_Control
 254              		.syntax unified
 255              		.thumb
 256              		.thumb_func
 257              		.fpu fpv4-sp-d16
 259              	PID_Control:
 260              	.LVL21:
 261              	.LFB126:
  65:./app/pid/pid.c **** 
  66:./app/pid/pid.c **** PID_Base_t PID_Control(PID_t * const pid, PID_Base_t deviation)
  67:./app/pid/pid.c **** {
 262              		.loc 1 67 1 is_stmt 1 view -0
 263              		.cfi_startproc
 264              		@ args = 0, pretend = 0, frame = 0
 265              		@ frame_needed = 0, uses_anonymous_args = 0
 266              		.loc 1 67 1 is_stmt 0 view .LVU62
 267 0000 10B5     		push	{r4, lr}
 268              	.LCFI8:
 269              		.cfi_def_cfa_offset 8
 270              		.cfi_offset 4, -8
 271              		.cfi_offset 14, -4
 272 0002 2DED028B 		vpush.64	{d8}
 273              	.LCFI9:
 274              		.cfi_def_cfa_offset 16
 275              		.cfi_offset 80, -16
 276              		.cfi_offset 81, -12
 277 0006 0446     		mov	r4, r0
ARM GAS  /tmp/ccDG1SGN.s 			page 7


 278 0008 B0EE408A 		vmov.f32	s16, s0
  68:./app/pid/pid.c **** 	PID_Base_t out;
 279              		.loc 1 68 2 is_stmt 1 view .LVU63
  69:./app/pid/pid.c **** 	PID_Base_t dItem;
 280              		.loc 1 69 2 view .LVU64
  70:./app/pid/pid.c **** 	
  71:./app/pid/pid.c **** 	pid->ISum += pid->I * deviation;
 281              		.loc 1 71 2 view .LVU65
 282              		.loc 1 71 18 is_stmt 0 view .LVU66
 283 000c 90ED010A 		vldr.32	s0, [r0, #4]
 284              	.LVL22:
 285              		.loc 1 71 22 view .LVU67
 286 0010 20EE080A 		vmul.f32	s0, s0, s16
 287              		.loc 1 71 12 view .LVU68
 288 0014 D0ED047A 		vldr.32	s15, [r0, #16]
 289 0018 30EE270A 		vadd.f32	s0, s0, s15
 290 001c 80ED040A 		vstr.32	s0, [r0, #16]
  72:./app/pid/pid.c **** 	pid->ISum = PID_Limit(pid->ISum, pid->ISumMin, pid->ISumMax);
 291              		.loc 1 72 2 is_stmt 1 view .LVU69
 292              		.loc 1 72 14 is_stmt 0 view .LVU70
 293 0020 90ED061A 		vldr.32	s2, [r0, #24]
 294 0024 D0ED050A 		vldr.32	s1, [r0, #20]
 295 0028 FFF7FEFF 		bl	PID_Limit
 296              	.LVL23:
 297              		.loc 1 72 12 view .LVU71
 298 002c 84ED040A 		vstr.32	s0, [r4, #16]
  73:./app/pid/pid.c **** 
  74:./app/pid/pid.c **** 	dItem = deviation - pid->LastDeviation;
 299              		.loc 1 74 2 is_stmt 1 view .LVU72
 300              		.loc 1 74 25 is_stmt 0 view .LVU73
 301 0030 94ED030A 		vldr.32	s0, [r4, #12]
 302              		.loc 1 74 8 view .LVU74
 303 0034 38EE400A 		vsub.f32	s0, s16, s0
 304              	.LVL24:
  75:./app/pid/pid.c **** 
  76:./app/pid/pid.c **** 	if(NULL != pid->DFilterFunc)
 305              		.loc 1 76 2 is_stmt 1 view .LVU75
 306              		.loc 1 76 16 is_stmt 0 view .LVU76
 307 0038 636A     		ldr	r3, [r4, #36]
 308              		.loc 1 76 4 view .LVU77
 309 003a 03B1     		cbz	r3, .L28
  77:./app/pid/pid.c **** 	{
  78:./app/pid/pid.c **** 		dItem = pid->DFilterFunc(dItem);
 310              		.loc 1 78 3 is_stmt 1 view .LVU78
 311              		.loc 1 78 11 is_stmt 0 view .LVU79
 312 003c 9847     		blx	r3
 313              	.LVL25:
 314              	.L28:
  79:./app/pid/pid.c **** 	}
  80:./app/pid/pid.c **** 	
  81:./app/pid/pid.c **** 	out = pid->P * deviation + pid->ISum + pid->D * dItem;
 315              		.loc 1 81 2 is_stmt 1 view .LVU80
 316              		.loc 1 81 11 is_stmt 0 view .LVU81
 317 003e D4ED007A 		vldr.32	s15, [r4]
 318              		.loc 1 81 15 view .LVU82
 319 0042 67EE887A 		vmul.f32	s15, s15, s16
 320              		.loc 1 81 32 view .LVU83
ARM GAS  /tmp/ccDG1SGN.s 			page 8


 321 0046 94ED047A 		vldr.32	s14, [r4, #16]
 322              		.loc 1 81 27 view .LVU84
 323 004a 77EE877A 		vadd.f32	s15, s15, s14
 324              		.loc 1 81 44 view .LVU85
 325 004e 94ED027A 		vldr.32	s14, [r4, #8]
 326              		.loc 1 81 48 view .LVU86
 327 0052 27EE000A 		vmul.f32	s0, s14, s0
 328              	.LVL26:
  82:./app/pid/pid.c **** 	out = PID_Limit(out, pid->OutMin, pid->OutMax);
 329              		.loc 1 82 2 is_stmt 1 view .LVU87
 330              		.loc 1 82 8 is_stmt 0 view .LVU88
 331 0056 94ED081A 		vldr.32	s2, [r4, #32]
 332 005a D4ED070A 		vldr.32	s1, [r4, #28]
 333 005e 37EE800A 		vadd.f32	s0, s15, s0
 334              	.LVL27:
 335              		.loc 1 82 8 view .LVU89
 336 0062 FFF7FEFF 		bl	PID_Limit
 337              	.LVL28:
  83:./app/pid/pid.c **** 
  84:./app/pid/pid.c **** 	pid->LastDeviation = deviation;
 338              		.loc 1 84 2 is_stmt 1 view .LVU90
 339              		.loc 1 84 21 is_stmt 0 view .LVU91
 340 0066 84ED038A 		vstr.32	s16, [r4, #12]
  85:./app/pid/pid.c **** 
  86:./app/pid/pid.c **** 	return out;
 341              		.loc 1 86 2 is_stmt 1 view .LVU92
  87:./app/pid/pid.c **** }
 342              		.loc 1 87 1 is_stmt 0 view .LVU93
 343 006a BDEC028B 		vldm	sp!, {d8}
 344              	.LCFI10:
 345              		.cfi_restore 80
 346              		.cfi_restore 81
 347              		.cfi_def_cfa_offset 8
 348              	.LVL29:
 349              		.loc 1 87 1 view .LVU94
 350 006e 10BD     		pop	{r4, pc}
 351              		.loc 1 87 1 view .LVU95
 352              		.cfi_endproc
 353              	.LFE126:
 355              		.section	.text.PID_ISumClean,"ax",%progbits
 356              		.align	1
 357              		.global	PID_ISumClean
 358              		.syntax unified
 359              		.thumb
 360              		.thumb_func
 361              		.fpu fpv4-sp-d16
 363              	PID_ISumClean:
 364              	.LVL30:
 365              	.LFB127:
  88:./app/pid/pid.c **** 
  89:./app/pid/pid.c **** 
  90:./app/pid/pid.c **** 
  91:./app/pid/pid.c **** void PID_ISumClean(PID_t * const pid)
  92:./app/pid/pid.c **** {
 366              		.loc 1 92 1 is_stmt 1 view -0
 367              		.cfi_startproc
 368              		@ args = 0, pretend = 0, frame = 0
ARM GAS  /tmp/ccDG1SGN.s 			page 9


 369              		@ frame_needed = 0, uses_anonymous_args = 0
 370              		@ link register save eliminated.
  93:./app/pid/pid.c **** 	if(NULL != pid)
 371              		.loc 1 93 2 view .LVU97
 372              		.loc 1 93 4 is_stmt 0 view .LVU98
 373 0000 08B1     		cbz	r0, .L30
  94:./app/pid/pid.c **** 	{
  95:./app/pid/pid.c **** 		pid->ISum = 0;
 374              		.loc 1 95 3 is_stmt 1 view .LVU99
 375              		.loc 1 95 13 is_stmt 0 view .LVU100
 376 0002 0022     		movs	r2, #0
 377 0004 0261     		str	r2, [r0, #16]	@ float
 378              	.L30:
  96:./app/pid/pid.c **** 	}
  97:./app/pid/pid.c **** }
 379              		.loc 1 97 1 view .LVU101
 380 0006 7047     		bx	lr
 381              		.cfi_endproc
 382              	.LFE127:
 384              		.text
 385              	.Letext0:
 386              		.file 2 "./app/pid/pid.h"
 387              		.file 3 "common/common.h"
ARM GAS  /tmp/ccDG1SGN.s 			page 10

