ARM GAS  /tmp/ccRRRj5F.s 			page 1


   1              		.cpu cortex-m4
   2              		.eabi_attribute 27, 1
   3              		.eabi_attribute 28, 1
   4              		.eabi_attribute 20, 1
   5              		.eabi_attribute 21, 1
   6              		.eabi_attribute 23, 3
   7              		.eabi_attribute 24, 1
   8              		.eabi_attribute 25, 1
   9              		.eabi_attribute 26, 1
  10              		.eabi_attribute 30, 1
  11              		.eabi_attribute 34, 1
  12              		.eabi_attribute 18, 4
  13              		.file	"remote_data.c"
  14              		.text
  15              	.Ltext0:
  16              		.cfi_sections	.debug_frame
  17              		.section	.text.RemoteData_SetRockerValue,"ax",%progbits
  18              		.align	1
  19              		.global	RemoteData_SetRockerValue
  20              		.arch armv7e-m
  21              		.syntax unified
  22              		.thumb
  23              		.thumb_func
  24              		.fpu fpv4-sp-d16
  26              	RemoteData_SetRockerValue:
  27              	.LVL0:
  28              	.LFB123:
  29              		.file 1 "./dal/remote/remote_data.c"
   1:./dal/remote/remote_data.c **** #include "remote_data.h"
   2:./dal/remote/remote_data.c **** 
   3:./dal/remote/remote_data.c **** 
   4:./dal/remote/remote_data.c **** void RemoteData_SetRockerValue(RemoteData_t * remote, E_REMOTE_DATA_ROCKER_TYPE rockerType, int16_t
   5:./dal/remote/remote_data.c **** {
  30              		.loc 1 5 1 view -0
  31              		.cfi_startproc
  32              		@ args = 0, pretend = 0, frame = 0
  33              		@ frame_needed = 0, uses_anonymous_args = 0
  34              		@ link register save eliminated.
   6:./dal/remote/remote_data.c **** 	if((NULL == remote)
  35              		.loc 1 6 2 view .LVU1
  36              		.loc 1 6 4 is_stmt 0 view .LVU2
  37 0000 0346     		mov	r3, r0
  38 0002 18B1     		cbz	r0, .L4
  39              	.L2:
   7:./dal/remote/remote_data.c **** 		&& (rockerType >= E_REMOTE_DATA_ROCKER_TYPE_MAX)
   8:./dal/remote/remote_data.c **** 	)
   9:./dal/remote/remote_data.c **** 	{
  10:./dal/remote/remote_data.c **** 		return;
  11:./dal/remote/remote_data.c **** 	}
  12:./dal/remote/remote_data.c **** 	else
  13:./dal/remote/remote_data.c **** 	{
  14:./dal/remote/remote_data.c **** 		remote->RockerValue[rockerType] = Value;
  40              		.loc 1 14 3 is_stmt 1 view .LVU3
  41              		.loc 1 14 35 is_stmt 0 view .LVU4
  42 0004 03EB4101 		add	r1, r3, r1, lsl #1
  43              	.LVL1:
  44              		.loc 1 14 35 view .LVU5
ARM GAS  /tmp/ccRRRj5F.s 			page 2


  45 0008 8A80     		strh	r2, [r1, #4]	@ movhi
  46              	.L1:
  15:./dal/remote/remote_data.c **** 	}
  16:./dal/remote/remote_data.c **** }
  47              		.loc 1 16 1 view .LVU6
  48 000a 7047     		bx	lr
  49              	.LVL2:
  50              	.L4:
   7:./dal/remote/remote_data.c **** 		&& (rockerType >= E_REMOTE_DATA_ROCKER_TYPE_MAX)
  51              		.loc 1 7 3 view .LVU7
  52 000c 0329     		cmp	r1, #3
  53 000e F9D9     		bls	.L2
  54 0010 FBE7     		b	.L1
  55              		.cfi_endproc
  56              	.LFE123:
  58              		.section	.text.RemoteData_GetRockerValue,"ax",%progbits
  59              		.align	1
  60              		.global	RemoteData_GetRockerValue
  61              		.syntax unified
  62              		.thumb
  63              		.thumb_func
  64              		.fpu fpv4-sp-d16
  66              	RemoteData_GetRockerValue:
  67              	.LVL3:
  68              	.LFB124:
  17:./dal/remote/remote_data.c **** 
  18:./dal/remote/remote_data.c **** 
  19:./dal/remote/remote_data.c **** 
  20:./dal/remote/remote_data.c **** int16_t RemoteData_GetRockerValue(RemoteData_t * remote, E_REMOTE_DATA_ROCKER_TYPE rockerType)
  21:./dal/remote/remote_data.c **** {
  69              		.loc 1 21 1 is_stmt 1 view -0
  70              		.cfi_startproc
  71              		@ args = 0, pretend = 0, frame = 0
  72              		@ frame_needed = 0, uses_anonymous_args = 0
  73              		@ link register save eliminated.
  22:./dal/remote/remote_data.c **** 	if((NULL == remote)
  74              		.loc 1 22 2 view .LVU9
  75              		.loc 1 22 4 is_stmt 0 view .LVU10
  76 0000 0346     		mov	r3, r0
  77 0002 20B1     		cbz	r0, .L9
  78              	.L6:
  23:./dal/remote/remote_data.c **** 		&& (rockerType >= E_REMOTE_DATA_ROCKER_TYPE_MAX)
  24:./dal/remote/remote_data.c **** 	)
  25:./dal/remote/remote_data.c **** 	{
  26:./dal/remote/remote_data.c **** 		return 0;
  27:./dal/remote/remote_data.c **** 	}
  28:./dal/remote/remote_data.c **** 	else
  29:./dal/remote/remote_data.c **** 	{
  30:./dal/remote/remote_data.c **** 		return remote->RockerValue[rockerType];
  79              		.loc 1 30 3 is_stmt 1 view .LVU11
  80              		.loc 1 30 29 is_stmt 0 view .LVU12
  81 0004 03EB4101 		add	r1, r3, r1, lsl #1
  82              	.LVL4:
  83              		.loc 1 30 29 view .LVU13
  84 0008 B1F90400 		ldrsh	r0, [r1, #4]
  85              	.LVL5:
  86              		.loc 1 30 29 view .LVU14
ARM GAS  /tmp/ccRRRj5F.s 			page 3


  87 000c 7047     		bx	lr
  88              	.LVL6:
  89              	.L9:
  23:./dal/remote/remote_data.c **** 		&& (rockerType >= E_REMOTE_DATA_ROCKER_TYPE_MAX)
  90              		.loc 1 23 3 view .LVU15
  91 000e 0329     		cmp	r1, #3
  92 0010 F8D9     		bls	.L6
  26:./dal/remote/remote_data.c **** 	}
  93              		.loc 1 26 10 view .LVU16
  94 0012 0020     		movs	r0, #0
  95              	.LVL7:
  31:./dal/remote/remote_data.c **** 	}
  32:./dal/remote/remote_data.c **** }
  96              		.loc 1 32 1 view .LVU17
  97 0014 7047     		bx	lr
  98              		.cfi_endproc
  99              	.LFE124:
 101              		.section	.text.RemoteData_SetSWValue,"ax",%progbits
 102              		.align	1
 103              		.global	RemoteData_SetSWValue
 104              		.syntax unified
 105              		.thumb
 106              		.thumb_func
 107              		.fpu fpv4-sp-d16
 109              	RemoteData_SetSWValue:
 110              	.LVL8:
 111              	.LFB125:
  33:./dal/remote/remote_data.c **** 
  34:./dal/remote/remote_data.c **** 
  35:./dal/remote/remote_data.c **** 
  36:./dal/remote/remote_data.c **** void RemoteData_SetSWValue(RemoteData_t * remote, E_REMOTE_DATA_SW_TYPE swType, uint8_t Value)
  37:./dal/remote/remote_data.c **** {
 112              		.loc 1 37 1 is_stmt 1 view -0
 113              		.cfi_startproc
 114              		@ args = 0, pretend = 0, frame = 0
 115              		@ frame_needed = 0, uses_anonymous_args = 0
 116              		@ link register save eliminated.
  38:./dal/remote/remote_data.c **** 	if((NULL == remote)
 117              		.loc 1 38 2 view .LVU19
 118              		.loc 1 38 4 is_stmt 0 view .LVU20
 119 0000 0346     		mov	r3, r0
 120 0002 08B1     		cbz	r0, .L13
 121              	.L11:
  39:./dal/remote/remote_data.c **** 		&& (swType >= E_REMOTE_DATA_SW_TYPE_MAX)
  40:./dal/remote/remote_data.c **** 	)
  41:./dal/remote/remote_data.c **** 	{
  42:./dal/remote/remote_data.c **** 		return;
  43:./dal/remote/remote_data.c **** 	}
  44:./dal/remote/remote_data.c **** 	else
  45:./dal/remote/remote_data.c **** 	{
  46:./dal/remote/remote_data.c **** 		remote->SWValue[swType] = Value;
 122              		.loc 1 46 3 is_stmt 1 view .LVU21
 123              		.loc 1 46 27 is_stmt 0 view .LVU22
 124 0004 5A54     		strb	r2, [r3, r1]
 125              	.L10:
  47:./dal/remote/remote_data.c **** 	}
  48:./dal/remote/remote_data.c **** }
ARM GAS  /tmp/ccRRRj5F.s 			page 4


 126              		.loc 1 48 1 view .LVU23
 127 0006 7047     		bx	lr
 128              	.L13:
  39:./dal/remote/remote_data.c **** 		&& (swType >= E_REMOTE_DATA_SW_TYPE_MAX)
 129              		.loc 1 39 3 view .LVU24
 130 0008 0329     		cmp	r1, #3
 131 000a FBD9     		bls	.L11
 132 000c FBE7     		b	.L10
 133              		.cfi_endproc
 134              	.LFE125:
 136              		.section	.text.RemoteData_GetSWValue,"ax",%progbits
 137              		.align	1
 138              		.global	RemoteData_GetSWValue
 139              		.syntax unified
 140              		.thumb
 141              		.thumb_func
 142              		.fpu fpv4-sp-d16
 144              	RemoteData_GetSWValue:
 145              	.LVL9:
 146              	.LFB126:
  49:./dal/remote/remote_data.c **** 
  50:./dal/remote/remote_data.c **** 
  51:./dal/remote/remote_data.c **** 
  52:./dal/remote/remote_data.c **** uint8_t RemoteData_GetSWValue(RemoteData_t * remote, E_REMOTE_DATA_SW_TYPE swType)
  53:./dal/remote/remote_data.c **** {
 147              		.loc 1 53 1 is_stmt 1 view -0
 148              		.cfi_startproc
 149              		@ args = 0, pretend = 0, frame = 0
 150              		@ frame_needed = 0, uses_anonymous_args = 0
 151              		@ link register save eliminated.
  54:./dal/remote/remote_data.c **** 	if((NULL == remote)
 152              		.loc 1 54 2 view .LVU26
 153              		.loc 1 54 4 is_stmt 0 view .LVU27
 154 0000 0346     		mov	r3, r0
 155 0002 08B1     		cbz	r0, .L18
 156              	.L15:
  55:./dal/remote/remote_data.c **** 		&& (swType >= E_REMOTE_DATA_SW_TYPE_MAX)
  56:./dal/remote/remote_data.c **** 	)
  57:./dal/remote/remote_data.c **** 	{
  58:./dal/remote/remote_data.c **** 		return 0;
  59:./dal/remote/remote_data.c **** 	}
  60:./dal/remote/remote_data.c **** 	else
  61:./dal/remote/remote_data.c **** 	{
  62:./dal/remote/remote_data.c **** 		return remote->SWValue[swType];
 157              		.loc 1 62 3 is_stmt 1 view .LVU28
 158              		.loc 1 62 25 is_stmt 0 view .LVU29
 159 0004 585C     		ldrb	r0, [r3, r1]	@ zero_extendqisi2
 160              	.LVL10:
 161              		.loc 1 62 25 view .LVU30
 162 0006 7047     		bx	lr
 163              	.LVL11:
 164              	.L18:
  55:./dal/remote/remote_data.c **** 		&& (swType >= E_REMOTE_DATA_SW_TYPE_MAX)
 165              		.loc 1 55 3 view .LVU31
 166 0008 0329     		cmp	r1, #3
 167 000a FBD9     		bls	.L15
  58:./dal/remote/remote_data.c **** 	}
ARM GAS  /tmp/ccRRRj5F.s 			page 5


 168              		.loc 1 58 10 view .LVU32
 169 000c 0020     		movs	r0, #0
 170              	.LVL12:
  63:./dal/remote/remote_data.c **** 	}
  64:./dal/remote/remote_data.c **** }
 171              		.loc 1 64 1 view .LVU33
 172 000e 7047     		bx	lr
 173              		.cfi_endproc
 174              	.LFE126:
 176              		.text
 177              	.Letext0:
 178              		.file 2 "/usr/lib/gcc/arm-none-eabi/10.3.1/include/stdint.h"
 179              		.file 3 "./dal/remote/remote_data.h"
ARM GAS  /tmp/ccRRRj5F.s 			page 6

