ARM GAS  /tmp/ccGzdr8Y.s 			page 1


   1              		.cpu cortex-m4
   2              		.eabi_attribute 27, 1
   3              		.eabi_attribute 28, 1
   4              		.eabi_attribute 20, 1
   5              		.eabi_attribute 21, 1
   6              		.eabi_attribute 23, 3
   7              		.eabi_attribute 24, 1
   8              		.eabi_attribute 25, 1
   9              		.eabi_attribute 26, 1
  10              		.eabi_attribute 30, 1
  11              		.eabi_attribute 34, 1
  12              		.eabi_attribute 18, 4
  13              		.file	"remote_task.c"
  14              		.text
  15              	.Ltext0:
  16              		.cfi_sections	.debug_frame
  17              		.section	.text.IBUSDataToRemoteData,"ax",%progbits
  18              		.align	1
  19              		.arch armv7e-m
  20              		.syntax unified
  21              		.thumb
  22              		.thumb_func
  23              		.fpu fpv4-sp-d16
  25              	IBUSDataToRemoteData:
  26              	.LVL0:
  27              	.LFB128:
  28              		.file 1 "./app/remote_task/remote_task.c"
   1:./app/remote_task/remote_task.c **** #include "remote_task.h"
   2:./app/remote_task/remote_task.c **** 
   3:./app/remote_task/remote_task.c **** #include "main.h"
   4:./app/remote_task/remote_task.c **** 
   5:./app/remote_task/remote_task.c **** #include "usart_hal_config.h"
   6:./app/remote_task/remote_task.c **** #include "ibus.h"
   7:./app/remote_task/remote_task.c **** 
   8:./app/remote_task/remote_task.c **** #include "remote_data.h"
   9:./app/remote_task/remote_task.c **** 
  10:./app/remote_task/remote_task.c **** 
  11:./app/remote_task/remote_task.c **** IBUS_t IBUS = 
  12:./app/remote_task/remote_task.c **** {
  13:./app/remote_task/remote_task.c **** 	0
  14:./app/remote_task/remote_task.c **** };
  15:./app/remote_task/remote_task.c **** 
  16:./app/remote_task/remote_task.c **** 
  17:./app/remote_task/remote_task.c **** 
  18:./app/remote_task/remote_task.c **** 
  19:./app/remote_task/remote_task.c **** static void IBUSDataToRemoteData(IBUS_t * ibus, RemoteData_t * remote)
  20:./app/remote_task/remote_task.c **** {
  29              		.loc 1 20 1 view -0
  30              		.cfi_startproc
  31              		@ args = 0, pretend = 0, frame = 0
  32              		@ frame_needed = 0, uses_anonymous_args = 0
  33              		.loc 1 20 1 is_stmt 0 view .LVU1
  34 0000 F8B5     		push	{r3, r4, r5, r6, r7, lr}
  35              	.LCFI0:
  36              		.cfi_def_cfa_offset 24
  37              		.cfi_offset 3, -24
  38              		.cfi_offset 4, -20
ARM GAS  /tmp/ccGzdr8Y.s 			page 2


  39              		.cfi_offset 5, -16
  40              		.cfi_offset 6, -12
  41              		.cfi_offset 7, -8
  42              		.cfi_offset 14, -4
  43 0002 0546     		mov	r5, r0
  44 0004 0C46     		mov	r4, r1
  21:./app/remote_task/remote_task.c **** 	int throttle = 0;
  45              		.loc 1 21 2 is_stmt 1 view .LVU2
  46              	.LVL1:
  22:./app/remote_task/remote_task.c **** 
  23:./app/remote_task/remote_task.c **** 	/**********************油门**************************/
  24:./app/remote_task/remote_task.c ****     throttle = IBUS_GetChannelData(ibus, E_IBUS_Channel3);
  47              		.loc 1 24 5 view .LVU3
  48              		.loc 1 24 16 is_stmt 0 view .LVU4
  49 0006 0221     		movs	r1, #2
  50              	.LVL2:
  51              		.loc 1 24 16 view .LVU5
  52 0008 FFF7FEFF 		bl	IBUS_GetChannelData
  53              	.LVL3:
  25:./app/remote_task/remote_task.c ****     throttle = int_range(throttle, REMOTE_VALUE_MIN, REMOTE_VALUE_MAX);
  54              		.loc 1 25 5 is_stmt 1 view .LVU6
  55              		.loc 1 25 16 is_stmt 0 view .LVU7
  56 000c 4FF4FA62 		mov	r2, #2000
  57 0010 4FF47A71 		mov	r1, #1000
  58 0014 FFF7FEFF 		bl	int_range
  59              	.LVL4:
  26:./app/remote_task/remote_task.c **** 
  27:./app/remote_task/remote_task.c ****     throttle = (THROTTLE_TO_MOTOR_MAX - THROTTLE_TO_MOTOR_MIN) * (throttle - REMOTE_VALUE_MIN)/(REM
  60              		.loc 1 27 5 is_stmt 1 view .LVU8
  28:./app/remote_task/remote_task.c **** 	throttle += THROTTLE_TO_MOTOR_MIN;
  61              		.loc 1 28 2 view .LVU9
  29:./app/remote_task/remote_task.c **** 
  30:./app/remote_task/remote_task.c **** 
  31:./app/remote_task/remote_task.c **** 	
  32:./app/remote_task/remote_task.c **** 	int16_t ibusChannelValue;
  62              		.loc 1 32 2 view .LVU10
  33:./app/remote_task/remote_task.c **** 	int16_t remoteValue;
  63              		.loc 1 33 2 view .LVU11
  34:./app/remote_task/remote_task.c **** 	
  35:./app/remote_task/remote_task.c **** 	ibusChannelValue = IBUS_GetChannelData(ibus, E_IBUS_Channel3); 
  64              		.loc 1 35 2 view .LVU12
  65              		.loc 1 35 21 is_stmt 0 view .LVU13
  66 0018 0221     		movs	r1, #2
  67 001a 2846     		mov	r0, r5
  68 001c FFF7FEFF 		bl	IBUS_GetChannelData
  69              	.LVL5:
  70              		.loc 1 35 19 view .LVU14
  71 0020 02B2     		sxth	r2, r0
  72              	.LVL6:
  36:./app/remote_task/remote_task.c **** 
  37:./app/remote_task/remote_task.c **** 	remoteValue = (THROTTLE_OUT_MAX - THROTTLE_OUT_MIN) * (ibusChannelValue - REMOTE_VALUE_MIN)/(REMOT
  73              		.loc 1 37 2 is_stmt 1 view .LVU15
  74              		.loc 1 37 74 is_stmt 0 view .LVU16
  75 0022 A2F57A72 		sub	r2, r2, #1000
  76              	.LVL7:
  77              		.loc 1 37 14 view .LVU17
  78 0026 02EB4202 		add	r2, r2, r2, lsl #1
ARM GAS  /tmp/ccGzdr8Y.s 			page 3


  79              	.LVL8:
  38:./app/remote_task/remote_task.c **** 	RemoteData_SetRockerValue(remote, E_REMOTE_DATA_LEFT_ROCKER_Y, remoteValue);
  80              		.loc 1 38 2 is_stmt 1 view .LVU18
  81 002a 12B2     		sxth	r2, r2
  82              		.loc 1 38 2 is_stmt 0 view .LVU19
  83 002c 0121     		movs	r1, #1
  84 002e 2046     		mov	r0, r4
  85              	.LVL9:
  86              		.loc 1 38 2 view .LVU20
  87 0030 FFF7FEFF 		bl	RemoteData_SetRockerValue
  88              	.LVL10:
  39:./app/remote_task/remote_task.c **** 	
  40:./app/remote_task/remote_task.c **** 
  41:./app/remote_task/remote_task.c **** 	ibusChannelValue = IBUS_GetChannelData(ibus, E_IBUS_Channel2);
  89              		.loc 1 41 2 is_stmt 1 view .LVU21
  90              		.loc 1 41 21 is_stmt 0 view .LVU22
  91 0034 0121     		movs	r1, #1
  92 0036 2846     		mov	r0, r5
  93 0038 FFF7FEFF 		bl	IBUS_GetChannelData
  94              	.LVL11:
  95              		.loc 1 41 19 view .LVU23
  96 003c 00B2     		sxth	r0, r0
  97              	.LVL12:
  42:./app/remote_task/remote_task.c **** 	remoteValue = (SET_PITCH_MAX - SET_PITCH_MIN) * (ibusChannelValue - REMOTE_VALUE_MIN)/(REMOTE_VALU
  98              		.loc 1 42 2 is_stmt 1 view .LVU24
  99              		.loc 1 42 68 is_stmt 0 view .LVU25
 100 003e A0F57A70 		sub	r0, r0, #1000
 101              	.LVL13:
 102              		.loc 1 42 48 view .LVU26
 103 0042 4627     		movs	r7, #70
 104 0044 07FB00F0 		mul	r0, r7, r0
 105              	.LVL14:
 106              		.loc 1 42 87 view .LVU27
 107 0048 2F4E     		ldr	r6, .L7
 108 004a 86FB0023 		smull	r2, r3, r6, r0
 109 004e C217     		asrs	r2, r0, #31
 110 0050 C2EBA312 		rsb	r2, r2, r3, asr #6
 111              		.loc 1 42 126 view .LVU28
 112 0054 233A     		subs	r2, r2, #35
 113              	.LVL15:
  43:./app/remote_task/remote_task.c **** 	RemoteData_SetRockerValue(remote, E_REMOTE_DATA_RIGHT_ROCKER_Y, remoteValue);
 114              		.loc 1 43 2 is_stmt 1 view .LVU29
 115 0056 12B2     		sxth	r2, r2
 116              		.loc 1 43 2 is_stmt 0 view .LVU30
 117 0058 0321     		movs	r1, #3
 118 005a 2046     		mov	r0, r4
 119 005c FFF7FEFF 		bl	RemoteData_SetRockerValue
 120              	.LVL16:
  44:./app/remote_task/remote_task.c **** 
  45:./app/remote_task/remote_task.c **** 	ibusChannelValue = IBUS_GetChannelData(ibus, E_IBUS_Channel1);
 121              		.loc 1 45 2 is_stmt 1 view .LVU31
 122              		.loc 1 45 21 is_stmt 0 view .LVU32
 123 0060 0021     		movs	r1, #0
 124 0062 2846     		mov	r0, r5
 125 0064 FFF7FEFF 		bl	IBUS_GetChannelData
 126              	.LVL17:
 127              		.loc 1 45 19 view .LVU33
ARM GAS  /tmp/ccGzdr8Y.s 			page 4


 128 0068 02B2     		sxth	r2, r0
 129              	.LVL18:
  46:./app/remote_task/remote_task.c **** 	remoteValue = (SET_ROLL_MAX - SET_ROLL_MIN) * (ibusChannelValue - REMOTE_VALUE_MIN)/(REMOTE_VALUE_
 130              		.loc 1 46 2 is_stmt 1 view .LVU34
 131              		.loc 1 46 66 is_stmt 0 view .LVU35
 132 006a A2F57A72 		sub	r2, r2, #1000
 133              	.LVL19:
 134              		.loc 1 46 46 view .LVU36
 135 006e 07FB02F2 		mul	r2, r7, r2
 136              	.LVL20:
 137              		.loc 1 46 85 view .LVU37
 138 0072 86FB0236 		smull	r3, r6, r6, r2
 139 0076 D217     		asrs	r2, r2, #31
 140 0078 C2EBA612 		rsb	r2, r2, r6, asr #6
 141              		.loc 1 46 124 view .LVU38
 142 007c 233A     		subs	r2, r2, #35
 143              	.LVL21:
  47:./app/remote_task/remote_task.c **** 	RemoteData_SetRockerValue(remote, E_REMOTE_DATA_RIGHT_ROCKER_X, remoteValue);
 144              		.loc 1 47 2 is_stmt 1 view .LVU39
 145 007e 12B2     		sxth	r2, r2
 146              		.loc 1 47 2 is_stmt 0 view .LVU40
 147 0080 0221     		movs	r1, #2
 148 0082 2046     		mov	r0, r4
 149              	.LVL22:
 150              		.loc 1 47 2 view .LVU41
 151 0084 FFF7FEFF 		bl	RemoteData_SetRockerValue
 152              	.LVL23:
  48:./app/remote_task/remote_task.c **** 
  49:./app/remote_task/remote_task.c **** 	ibusChannelValue = IBUS_GetChannelData(ibus, E_IBUS_Channel4);
 153              		.loc 1 49 2 is_stmt 1 view .LVU42
 154              		.loc 1 49 21 is_stmt 0 view .LVU43
 155 0088 0321     		movs	r1, #3
 156 008a 2846     		mov	r0, r5
 157 008c FFF7FEFF 		bl	IBUS_GetChannelData
 158              	.LVL24:
 159              		.loc 1 49 19 view .LVU44
 160 0090 00B2     		sxth	r0, r0
 161              	.LVL25:
  50:./app/remote_task/remote_task.c **** 	remoteValue = (SET_YAW_RATE_MAX - SET_YAW_RATE_MIN) * (ibusChannelValue - REMOTE_VALUE_MIN)/(REMOT
 162              		.loc 1 50 2 is_stmt 1 view .LVU45
 163              		.loc 1 50 74 is_stmt 0 view .LVU46
 164 0092 A0F57A70 		sub	r0, r0, #1000
 165              	.LVL26:
 166              		.loc 1 50 54 view .LVU47
 167 0096 07EE900A 		vmov	s15, r0	@ int
 168 009a F8EEE77A 		vcvt.f32.s32	s15, s15
 169 009e 77EEA77A 		vadd.f32	s15, s15, s15
 170              		.loc 1 50 93 view .LVU48
 171 00a2 DFED1A6A 		vldr.32	s13, .L7+4
 172 00a6 87EEA67A 		vdiv.f32	s14, s15, s13
 173              		.loc 1 50 132 view .LVU49
 174 00aa F7EE007A 		vmov.f32	s15, #1.0e+0
 175 00ae 77EE677A 		vsub.f32	s15, s14, s15
 176              		.loc 1 50 14 view .LVU50
 177 00b2 FDEEE77A 		vcvt.s32.f32	s15, s15
 178 00b6 17EE903A 		vmov	r3, s15	@ int
 179 00ba 1EB2     		sxth	r6, r3
ARM GAS  /tmp/ccGzdr8Y.s 			page 5


 180              	.LVL27:
  51:./app/remote_task/remote_task.c **** 	RemoteData_SetRockerValue(remote, E_REMOTE_DATA_LEFT_ROCKER_X, remoteValue);
 181              		.loc 1 51 2 is_stmt 1 view .LVU51
 182 00bc 3246     		mov	r2, r6
 183 00be 0021     		movs	r1, #0
 184 00c0 2046     		mov	r0, r4
 185              	.LVL28:
 186              		.loc 1 51 2 is_stmt 0 view .LVU52
 187 00c2 FFF7FEFF 		bl	RemoteData_SetRockerValue
 188              	.LVL29:
  52:./app/remote_task/remote_task.c **** 
  53:./app/remote_task/remote_task.c **** 	ibusChannelValue = IBUS_GetChannelData(ibus, E_IBUS_Channel7);
 189              		.loc 1 53 2 is_stmt 1 view .LVU53
 190              		.loc 1 53 21 is_stmt 0 view .LVU54
 191 00c6 0621     		movs	r1, #6
 192 00c8 2846     		mov	r0, r5
 193 00ca FFF7FEFF 		bl	IBUS_GetChannelData
 194              	.LVL30:
  54:./app/remote_task/remote_task.c **** 	if((ibusChannelValue > 750) && (ibusChannelValue < 1250))
 195              		.loc 1 54 2 is_stmt 1 view .LVU55
 196              		.loc 1 54 30 is_stmt 0 view .LVU56
 197 00ce A0F2EF23 		subw	r3, r0, #751
 198 00d2 9BB2     		uxth	r3, r3
 199              		.loc 1 54 4 view .LVU57
 200 00d4 B3F5F97F 		cmp	r3, #498
 201 00d8 0DD9     		bls	.L3
  55:./app/remote_task/remote_task.c **** 	{
  56:./app/remote_task/remote_task.c **** 		remoteValue = Stabilize_Mode;
  57:./app/remote_task/remote_task.c **** 	}
  58:./app/remote_task/remote_task.c **** 	else if((ibusChannelValue >= 1250) && (ibusChannelValue < 1750))
 202              		.loc 1 58 7 is_stmt 1 view .LVU58
 203              		.loc 1 58 37 is_stmt 0 view .LVU59
 204 00da A0F2E243 		subw	r3, r0, #1250
 205 00de 9BB2     		uxth	r3, r3
 206              		.loc 1 58 9 view .LVU60
 207 00e0 B3F5FA7F 		cmp	r3, #500
 208 00e4 0ED3     		bcc	.L4
  59:./app/remote_task/remote_task.c **** 	{
  60:./app/remote_task/remote_task.c **** 		remoteValue = Stabilize_Mode;
  61:./app/remote_task/remote_task.c **** 	}
  62:./app/remote_task/remote_task.c **** 	else if((ibusChannelValue >= 1750) && (ibusChannelValue < 2250))
 209              		.loc 1 62 7 is_stmt 1 view .LVU61
 210              		.loc 1 62 37 is_stmt 0 view .LVU62
 211 00e6 A0F2D660 		subw	r0, r0, #1750
 212              	.LVL31:
 213              		.loc 1 62 37 view .LVU63
 214 00ea 80B2     		uxth	r0, r0
 215              		.loc 1 62 9 view .LVU64
 216 00ec B0F5FA7F 		cmp	r0, #500
 217 00f0 02D2     		bcs	.L2
  63:./app/remote_task/remote_task.c **** 	{
  64:./app/remote_task/remote_task.c **** 		remoteValue = Auto_Mode;
 218              		.loc 1 64 15 view .LVU65
 219 00f2 0226     		movs	r6, #2
 220              	.LVL32:
 221              		.loc 1 64 15 view .LVU66
 222 00f4 00E0     		b	.L2
ARM GAS  /tmp/ccGzdr8Y.s 			page 6


 223              	.LVL33:
 224              	.L3:
  56:./app/remote_task/remote_task.c **** 	}
 225              		.loc 1 56 15 view .LVU67
 226 00f6 0126     		movs	r6, #1
 227              	.LVL34:
 228              	.L2:
  65:./app/remote_task/remote_task.c **** 	}
  66:./app/remote_task/remote_task.c **** 	RemoteData_SetSWValue(remote, E_REMOTE_DATA_SW4, remoteValue);
 229              		.loc 1 66 2 is_stmt 1 view .LVU68
 230 00f8 F2B2     		uxtb	r2, r6
 231 00fa 0321     		movs	r1, #3
 232 00fc 2046     		mov	r0, r4
 233 00fe FFF7FEFF 		bl	RemoteData_SetSWValue
 234              	.LVL35:
  67:./app/remote_task/remote_task.c ****     
  68:./app/remote_task/remote_task.c **** }
 235              		.loc 1 68 1 is_stmt 0 view .LVU69
 236 0102 F8BD     		pop	{r3, r4, r5, r6, r7, pc}
 237              	.LVL36:
 238              	.L4:
  60:./app/remote_task/remote_task.c **** 	}
 239              		.loc 1 60 15 view .LVU70
 240 0104 0126     		movs	r6, #1
 241              	.LVL37:
  60:./app/remote_task/remote_task.c **** 	}
 242              		.loc 1 60 15 view .LVU71
 243 0106 F7E7     		b	.L2
 244              	.L8:
 245              		.align	2
 246              	.L7:
 247 0108 D34D6210 		.word	274877907
 248 010c 00007A44 		.word	1148846080
 249              		.cfi_endproc
 250              	.LFE128:
 252              		.section	.text.IBUSDataUpdate,"ax",%progbits
 253              		.align	1
 254              		.syntax unified
 255              		.thumb
 256              		.thumb_func
 257              		.fpu fpv4-sp-d16
 259              	IBUSDataUpdate:
 260              	.LFB129:
  69:./app/remote_task/remote_task.c **** 
  70:./app/remote_task/remote_task.c **** 
  71:./app/remote_task/remote_task.c **** 
  72:./app/remote_task/remote_task.c **** static void IBUSDataUpdate()
  73:./app/remote_task/remote_task.c **** {
 261              		.loc 1 73 1 is_stmt 1 view -0
 262              		.cfi_startproc
 263              		@ args = 0, pretend = 0, frame = 56
 264              		@ frame_needed = 0, uses_anonymous_args = 0
 265 0000 00B5     		push	{lr}
 266              	.LCFI1:
 267              		.cfi_def_cfa_offset 4
 268              		.cfi_offset 14, -4
 269 0002 8FB0     		sub	sp, sp, #60
ARM GAS  /tmp/ccGzdr8Y.s 			page 7


 270              	.LCFI2:
 271              		.cfi_def_cfa_offset 64
  74:./app/remote_task/remote_task.c **** 	uint8_t isGetIBUSPackage;
 272              		.loc 1 74 2 view .LVU73
  75:./app/remote_task/remote_task.c **** 	uint8_t data[32];
 273              		.loc 1 75 2 view .LVU74
  76:./app/remote_task/remote_task.c **** 	uint32_t outLen = 0;
 274              		.loc 1 76 2 view .LVU75
 275              		.loc 1 76 11 is_stmt 0 view .LVU76
 276 0004 0023     		movs	r3, #0
 277 0006 0493     		str	r3, [sp, #16]
  77:./app/remote_task/remote_task.c **** 
  78:./app/remote_task/remote_task.c **** 	RemoteData_t remoteData = {0};
 278              		.loc 1 78 2 is_stmt 1 view .LVU77
 279              		.loc 1 78 15 is_stmt 0 view .LVU78
 280 0008 0193     		str	r3, [sp, #4]
 281 000a 0293     		str	r3, [sp, #8]
 282 000c 0393     		str	r3, [sp, #12]
  79:./app/remote_task/remote_task.c **** 	
  80:./app/remote_task/remote_task.c **** 	USART_HAL_ReadData(&USART2_HAL, data, 32, &outLen);
 283              		.loc 1 80 2 is_stmt 1 view .LVU79
 284 000e 04AB     		add	r3, sp, #16
 285 0010 2022     		movs	r2, #32
 286 0012 05A9     		add	r1, sp, #20
 287 0014 0E48     		ldr	r0, .L13
 288 0016 FFF7FEFF 		bl	USART_HAL_ReadData
 289              	.LVL38:
  81:./app/remote_task/remote_task.c **** 
  82:./app/remote_task/remote_task.c **** 	IBUS_AnalysisData(&IBUS, data, outLen, &isGetIBUSPackage);
 290              		.loc 1 82 2 view .LVU80
 291 001a 0DF13703 		add	r3, sp, #55
 292 001e 049A     		ldr	r2, [sp, #16]
 293 0020 05A9     		add	r1, sp, #20
 294 0022 0C48     		ldr	r0, .L13+4
 295 0024 FFF7FEFF 		bl	IBUS_AnalysisData
 296              	.LVL39:
  83:./app/remote_task/remote_task.c **** 
  84:./app/remote_task/remote_task.c **** 	
  85:./app/remote_task/remote_task.c **** 	if(TRUE == isGetIBUSPackage)
 297              		.loc 1 85 2 view .LVU81
 298              		.loc 1 85 10 is_stmt 0 view .LVU82
 299 0028 9DF83730 		ldrb	r3, [sp, #55]	@ zero_extendqisi2
 300              		.loc 1 85 4 view .LVU83
 301 002c 012B     		cmp	r3, #1
 302 002e 02D0     		beq	.L12
 303              	.L9:
  86:./app/remote_task/remote_task.c **** 	{
  87:./app/remote_task/remote_task.c **** 		IBUSDataToRemoteData(&IBUS, &remoteData);
  88:./app/remote_task/remote_task.c **** 
  89:./app/remote_task/remote_task.c **** 		xQueueSend(RemoteDataQueue,&remoteData,0);
  90:./app/remote_task/remote_task.c **** 	}
  91:./app/remote_task/remote_task.c **** 
  92:./app/remote_task/remote_task.c **** 
  93:./app/remote_task/remote_task.c **** }
 304              		.loc 1 93 1 view .LVU84
 305 0030 0FB0     		add	sp, sp, #60
 306              	.LCFI3:
ARM GAS  /tmp/ccGzdr8Y.s 			page 8


 307              		.cfi_remember_state
 308              		.cfi_def_cfa_offset 4
 309              		@ sp needed
 310 0032 5DF804FB 		ldr	pc, [sp], #4
 311              	.L12:
 312              	.LCFI4:
 313              		.cfi_restore_state
  87:./app/remote_task/remote_task.c **** 
 314              		.loc 1 87 3 is_stmt 1 view .LVU85
 315 0036 01A9     		add	r1, sp, #4
 316 0038 0648     		ldr	r0, .L13+4
 317 003a FFF7FEFF 		bl	IBUSDataToRemoteData
 318              	.LVL40:
  89:./app/remote_task/remote_task.c **** 	}
 319              		.loc 1 89 3 view .LVU86
 320 003e 0023     		movs	r3, #0
 321 0040 1A46     		mov	r2, r3
 322 0042 01A9     		add	r1, sp, #4
 323 0044 0448     		ldr	r0, .L13+8
 324 0046 0068     		ldr	r0, [r0]
 325 0048 FFF7FEFF 		bl	xQueueGenericSend
 326              	.LVL41:
 327              		.loc 1 93 1 is_stmt 0 view .LVU87
 328 004c F0E7     		b	.L9
 329              	.L14:
 330 004e 00BF     		.align	2
 331              	.L13:
 332 0050 00000000 		.word	USART2_HAL
 333 0054 00000000 		.word	.LANCHOR0
 334 0058 00000000 		.word	RemoteDataQueue
 335              		.cfi_endproc
 336              	.LFE129:
 338              		.section	.text.RemoteTask,"ax",%progbits
 339              		.align	1
 340              		.global	RemoteTask
 341              		.syntax unified
 342              		.thumb
 343              		.thumb_func
 344              		.fpu fpv4-sp-d16
 346              	RemoteTask:
 347              	.LFB130:
  94:./app/remote_task/remote_task.c **** 
  95:./app/remote_task/remote_task.c **** 
  96:./app/remote_task/remote_task.c **** void RemoteTask(void * parameters)
  97:./app/remote_task/remote_task.c **** {
 348              		.loc 1 97 1 is_stmt 1 view -0
 349              		.cfi_startproc
 350              		@ Volatile: function does not return.
 351              		@ args = 0, pretend = 0, frame = 0
 352              		@ frame_needed = 0, uses_anonymous_args = 0
 353              	.LVL42:
 354              		.loc 1 97 1 is_stmt 0 view .LVU89
 355 0000 08B5     		push	{r3, lr}
 356              	.LCFI5:
 357              		.cfi_def_cfa_offset 8
 358              		.cfi_offset 3, -8
 359              		.cfi_offset 14, -4
ARM GAS  /tmp/ccGzdr8Y.s 			page 9


 360              	.LVL43:
 361              	.L16:
  98:./app/remote_task/remote_task.c **** 
  99:./app/remote_task/remote_task.c **** 	for(;;)
 362              		.loc 1 99 2 is_stmt 1 discriminator 1 view .LVU90
 100:./app/remote_task/remote_task.c **** 	{
 101:./app/remote_task/remote_task.c ****         //xSemaphoreTake(remote_read_semaphore,portMAX_DELAY);
 102:./app/remote_task/remote_task.c **** 
 103:./app/remote_task/remote_task.c ****         IBUSDataUpdate();
 363              		.loc 1 103 9 discriminator 1 view .LVU91
 364 0002 FFF7FEFF 		bl	IBUSDataUpdate
 365              	.LVL44:
 104:./app/remote_task/remote_task.c **** 		vTaskDelay(1);
 366              		.loc 1 104 3 discriminator 1 view .LVU92
 367 0006 0120     		movs	r0, #1
 368 0008 FFF7FEFF 		bl	vTaskDelay
 369              	.LVL45:
  99:./app/remote_task/remote_task.c **** 	{
 370              		.loc 1 99 7 discriminator 1 view .LVU93
 371 000c F9E7     		b	.L16
 372              		.cfi_endproc
 373              	.LFE130:
 375              		.global	IBUS
 376              		.section	.bss.IBUS,"aw",%nobits
 377              		.align	2
 378              		.set	.LANCHOR0,. + 0
 381              	IBUS:
 382 0000 00000000 		.space	56
 382      00000000 
 382      00000000 
 382      00000000 
 382      00000000 
 383              		.text
 384              	.Letext0:
 385              		.file 2 "/usr/lib/gcc/arm-none-eabi/10.3.1/include/stdint.h"
 386              		.file 3 "freeRTOS/GCC/portmacro.h"
 387              		.file 4 "freeRTOS/include/queue.h"
 388              		.file 5 "hal/usart/usart_hal.h"
 389              		.file 6 "app/main.h"
 390              		.file 7 "hal/usart/usart_hal_config.h"
 391              		.file 8 "./app/remote_task/remote_task.h"
 392              		.file 9 "protocol_stack/ibus/ibus.h"
 393              		.file 10 "dal/remote/remote_data.h"
 394              		.file 11 "freeRTOS/include/task.h"
 395              		.file 12 "common/common.h"
ARM GAS  /tmp/ccGzdr8Y.s 			page 10

