ARM GAS  /tmp/ccBYxQkD.s 			page 1


   1              		.cpu cortex-m4
   2              		.eabi_attribute 27, 1
   3              		.eabi_attribute 28, 1
   4              		.eabi_attribute 20, 1
   5              		.eabi_attribute 21, 1
   6              		.eabi_attribute 23, 3
   7              		.eabi_attribute 24, 1
   8              		.eabi_attribute 25, 1
   9              		.eabi_attribute 26, 1
  10              		.eabi_attribute 30, 1
  11              		.eabi_attribute 34, 1
  12              		.eabi_attribute 18, 4
  13              		.file	"spl06.c"
  14              		.text
  15              	.Ltext0:
  16              		.cfi_sections	.debug_frame
  17              		.section	.text.SPL06_GetKPKT,"ax",%progbits
  18              		.align	1
  19              		.arch armv7e-m
  20              		.syntax unified
  21              		.thumb
  22              		.thumb_func
  23              		.fpu fpv4-sp-d16
  25              	SPL06_GetKPKT:
  26              	.LVL0:
  27              	.LFB129:
  28              		.file 1 "./dev/spl06/spl06.c"
   1:./dev/spl06/spl06.c **** #include "spl06.h"
   2:./dev/spl06/spl06.c **** 
   3:./dev/spl06/spl06.c ****    
   4:./dev/spl06/spl06.c **** 
   5:./dev/spl06/spl06.c **** 
   6:./dev/spl06/spl06.c **** 
   7:./dev/spl06/spl06.c **** 
   8:./dev/spl06/spl06.c **** //获取补偿参数
   9:./dev/spl06/spl06.c **** void SPL06_GetCalibParams(SPL06_t * spl06)
  10:./dev/spl06/spl06.c **** {
  11:./dev/spl06/spl06.c **** 
  12:./dev/spl06/spl06.c **** 	uint8_t data[18] = {0};
  13:./dev/spl06/spl06.c **** 
  14:./dev/spl06/spl06.c **** 	if((NULL == spl06)
  15:./dev/spl06/spl06.c **** 		&& (NULL == spl06->I2CReadReg)
  16:./dev/spl06/spl06.c **** 	)
  17:./dev/spl06/spl06.c **** 	{
  18:./dev/spl06/spl06.c **** 		return;
  19:./dev/spl06/spl06.c **** 	}
  20:./dev/spl06/spl06.c **** 
  21:./dev/spl06/spl06.c **** 
  22:./dev/spl06/spl06.c **** 	spl06->I2CReadReg(spl06->DevAddr, 0x10, data, 18);
  23:./dev/spl06/spl06.c **** 
  24:./dev/spl06/spl06.c **** 	
  25:./dev/spl06/spl06.c **** 	
  26:./dev/spl06/spl06.c **** 	spl06->CalibParams.c0 = ((int16_t)data[0] << 4) | (data[1] >> 4);
  27:./dev/spl06/spl06.c **** 	spl06->CalibParams.c0 = (spl06->CalibParams.c0&0x0800)?(0xF000|spl06->CalibParams.c0):spl06->Calib
  28:./dev/spl06/spl06.c **** 	
  29:./dev/spl06/spl06.c **** 
  30:./dev/spl06/spl06.c **** 	spl06->CalibParams.c1 = (int16_t)(data[1] & 0x0F) << 8 | data[2];
ARM GAS  /tmp/ccBYxQkD.s 			page 2


  31:./dev/spl06/spl06.c ****     spl06->CalibParams.c1 = (spl06->CalibParams.c1 & 0x0800)?(0xF000|spl06->CalibParams.c1):spl06->
  32:./dev/spl06/spl06.c **** 	
  33:./dev/spl06/spl06.c **** 
  34:./dev/spl06/spl06.c **** 	spl06->CalibParams.c00 = (int32_t)data[3]<<12 | (int32_t)data[4]<<4 | (int32_t)data[5]>>4;
  35:./dev/spl06/spl06.c ****     spl06->CalibParams.c00 = (spl06->CalibParams.c00&0x080000)?(0xFFF00000|spl06->CalibParams.c00):
  36:./dev/spl06/spl06.c **** 
  37:./dev/spl06/spl06.c **** 	
  38:./dev/spl06/spl06.c **** 
  39:./dev/spl06/spl06.c **** 	spl06->CalibParams.c10 = (int32_t)data[5] << 16 | (int32_t)data[6]<<8 | data[7];
  40:./dev/spl06/spl06.c ****     spl06->CalibParams.c10 = (spl06->CalibParams.c10&0x080000)?(0xFFF00000|spl06->CalibParams.c10):
  41:./dev/spl06/spl06.c **** 
  42:./dev/spl06/spl06.c **** 
  43:./dev/spl06/spl06.c **** 	spl06->CalibParams.c01 = (int16_t)data[8] << 8 | data[9];
  44:./dev/spl06/spl06.c ****     
  45:./dev/spl06/spl06.c ****     spl06->CalibParams.c11 = (int16_t)data[10] << 8 | data[11];
  46:./dev/spl06/spl06.c **** 	spl06->CalibParams.c11 = (spl06->CalibParams.c11 & 0x0800) ? (0xF000 | spl06->CalibParams.c11) : s
  47:./dev/spl06/spl06.c **** 
  48:./dev/spl06/spl06.c ****     spl06->CalibParams.c20 = (int16_t)data[12] << 8 | data[13];
  49:./dev/spl06/spl06.c **** 	spl06->CalibParams.c20 = (spl06->CalibParams.c20&0x0800) ? (0xF000|spl06->CalibParams.c20):spl06->
  50:./dev/spl06/spl06.c ****     
  51:./dev/spl06/spl06.c **** 	spl06->CalibParams.c21 = (int16_t)data[14] << 8 | data[15];
  52:./dev/spl06/spl06.c **** 	spl06->CalibParams.c21 = (spl06->CalibParams.c21&0x0800)?(0xF000|spl06->CalibParams.c21):spl06->Ca
  53:./dev/spl06/spl06.c **** 
  54:./dev/spl06/spl06.c ****     spl06->CalibParams.c30 = (int16_t)data[16] << 8 | data[17];
  55:./dev/spl06/spl06.c **** 	spl06->CalibParams.c30 = (spl06->CalibParams.c30&0x0800)?(0xF000|spl06->CalibParams.c30):spl06->Ca
  56:./dev/spl06/spl06.c **** 
  57:./dev/spl06/spl06.c ****     
  58:./dev/spl06/spl06.c **** }
  59:./dev/spl06/spl06.c **** 
  60:./dev/spl06/spl06.c **** 
  61:./dev/spl06/spl06.c **** static void SPL06_Delay()
  62:./dev/spl06/spl06.c **** {
  63:./dev/spl06/spl06.c **** 	uint32_t count = 100000;
  64:./dev/spl06/spl06.c **** 
  65:./dev/spl06/spl06.c **** 	while(--count);
  66:./dev/spl06/spl06.c **** }
  67:./dev/spl06/spl06.c **** 
  68:./dev/spl06/spl06.c **** 
  69:./dev/spl06/spl06.c **** //SPL06初始化
  70:./dev/spl06/spl06.c **** E_SPL06_ERROR SPL06_Init(SPL06_t * spl06)
  71:./dev/spl06/spl06.c **** {
  72:./dev/spl06/spl06.c **** 
  73:./dev/spl06/spl06.c **** 	uint8_t id = 0;
  74:./dev/spl06/spl06.c **** 	uint8_t count = 0;
  75:./dev/spl06/spl06.c **** 
  76:./dev/spl06/spl06.c **** 	if((NULL == spl06)
  77:./dev/spl06/spl06.c **** 		|| (NULL == spl06->I2CWriteReg)
  78:./dev/spl06/spl06.c **** 		|| (NULL == spl06->I2CReadReg)
  79:./dev/spl06/spl06.c **** 	)
  80:./dev/spl06/spl06.c **** 	{
  81:./dev/spl06/spl06.c **** 		return E_SPL06_ERROR_NULL;
  82:./dev/spl06/spl06.c **** 	}
  83:./dev/spl06/spl06.c **** 
  84:./dev/spl06/spl06.c **** 	SPL06_Delay();
  85:./dev/spl06/spl06.c **** 
  86:./dev/spl06/spl06.c **** 	do
  87:./dev/spl06/spl06.c **** 	{
ARM GAS  /tmp/ccBYxQkD.s 			page 3


  88:./dev/spl06/spl06.c **** 		++count;
  89:./dev/spl06/spl06.c **** 		spl06->I2CReadReg(spl06->DevAddr, 0x0D, &id, 1);
  90:./dev/spl06/spl06.c **** 
  91:./dev/spl06/spl06.c **** 		if(count > 5)
  92:./dev/spl06/spl06.c **** 		{
  93:./dev/spl06/spl06.c **** 			return E_SPL06_ERROR_DEV_NOT_FOUND;
  94:./dev/spl06/spl06.c **** 		}
  95:./dev/spl06/spl06.c **** 	}
  96:./dev/spl06/spl06.c **** 	while (id != 0x10);
  97:./dev/spl06/spl06.c **** 	
  98:./dev/spl06/spl06.c **** 
  99:./dev/spl06/spl06.c **** 	SPL06_GetCalibParams(spl06);
 100:./dev/spl06/spl06.c **** 
 101:./dev/spl06/spl06.c **** 	SPL06_SetPressureRate(spl06, spl06->PressureRate, spl06->PressurePRC);
 102:./dev/spl06/spl06.c **** 
 103:./dev/spl06/spl06.c **** 	SPL06_SetTemperatureRate(spl06, spl06->TemperatureRate, spl06->TemperaturePRC);
 104:./dev/spl06/spl06.c **** 
 105:./dev/spl06/spl06.c **** 	SPL06_SetMode(spl06, spl06->Mode);
 106:./dev/spl06/spl06.c **** 
 107:./dev/spl06/spl06.c **** 
 108:./dev/spl06/spl06.c **** 	return E_SPL06_ERROR_OK;
 109:./dev/spl06/spl06.c **** }
 110:./dev/spl06/spl06.c **** 
 111:./dev/spl06/spl06.c **** 
 112:./dev/spl06/spl06.c **** static int32_t SPL06_GetKPKT(E_SPL06_PRC prc) 
 113:./dev/spl06/spl06.c **** {
  29              		.loc 1 113 1 view -0
  30              		.cfi_startproc
  31              		@ args = 0, pretend = 0, frame = 0
  32              		@ frame_needed = 0, uses_anonymous_args = 0
  33              		@ link register save eliminated.
 114:./dev/spl06/spl06.c **** 	int32_t kpkt;
  34              		.loc 1 114 2 view .LVU1
 115:./dev/spl06/spl06.c **** 
 116:./dev/spl06/spl06.c **** 	switch(prc)
  35              		.loc 1 116 2 view .LVU2
  36 0000 0138     		subs	r0, r0, #1
  37              	.LVL1:
  38              		.loc 1 116 2 is_stmt 0 view .LVU3
  39 0002 0628     		cmp	r0, #6
  40 0004 05D8     		bhi	.L2
  41 0006 DFE800F0 		tbb	[pc, r0]
  42              	.L4:
  43 000a 19       		.byte	(.L11-.L4)/2
  44 000b 07       		.byte	(.L9-.L4)/2
  45 000c 0A       		.byte	(.L8-.L4)/2
  46 000d 0D       		.byte	(.L7-.L4)/2
  47 000e 10       		.byte	(.L6-.L4)/2
  48 000f 13       		.byte	(.L5-.L4)/2
  49 0010 16       		.byte	(.L3-.L4)/2
  50 0011 00       		.p2align 1
  51              	.L2:
  52 0012 4FF40020 		mov	r0, #524288
  53 0016 7047     		bx	lr
  54              	.L9:
 117:./dev/spl06/spl06.c ****     {
 118:./dev/spl06/spl06.c ****     	case E_SPL06_PRC_TIMES1:
ARM GAS  /tmp/ccBYxQkD.s 			page 4


 119:./dev/spl06/spl06.c **** 			kpkt = 524288;
 120:./dev/spl06/spl06.c **** 			break;
 121:./dev/spl06/spl06.c ****         case E_SPL06_PRC_TIMES2:
 122:./dev/spl06/spl06.c ****             kpkt = 1572864;
 123:./dev/spl06/spl06.c ****             break;
 124:./dev/spl06/spl06.c ****         case E_SPL06_PRC_TIMES4:
 125:./dev/spl06/spl06.c ****             kpkt = 3670016;
  55              		.loc 1 125 13 is_stmt 1 view .LVU4
  56              	.LVL2:
 126:./dev/spl06/spl06.c ****             break;
  57              		.loc 1 126 13 view .LVU5
 125:./dev/spl06/spl06.c ****             break;
  58              		.loc 1 125 18 is_stmt 0 view .LVU6
  59 0018 4FF46010 		mov	r0, #3670016
  60              		.loc 1 126 13 view .LVU7
  61 001c 7047     		bx	lr
  62              	.LVL3:
  63              	.L8:
 127:./dev/spl06/spl06.c ****         case E_SPL06_PRC_TIMES8:
 128:./dev/spl06/spl06.c ****             kpkt = 7864320;
  64              		.loc 1 128 13 is_stmt 1 view .LVU8
 129:./dev/spl06/spl06.c ****             break;
  65              		.loc 1 129 13 view .LVU9
 128:./dev/spl06/spl06.c ****             break;
  66              		.loc 1 128 18 is_stmt 0 view .LVU10
  67 001e 4FF4F000 		mov	r0, #7864320
  68              		.loc 1 129 13 view .LVU11
  69 0022 7047     		bx	lr
  70              	.LVL4:
  71              	.L7:
 130:./dev/spl06/spl06.c ****         case E_SPL06_PRC_TIMES16:
 131:./dev/spl06/spl06.c ****             kpkt = 253952;
  72              		.loc 1 131 13 is_stmt 1 view .LVU12
 132:./dev/spl06/spl06.c ****             break;
  73              		.loc 1 132 13 view .LVU13
 131:./dev/spl06/spl06.c ****             break;
  74              		.loc 1 131 18 is_stmt 0 view .LVU14
  75 0024 4FF47830 		mov	r0, #253952
  76              		.loc 1 132 13 view .LVU15
  77 0028 7047     		bx	lr
  78              	.LVL5:
  79              	.L6:
 133:./dev/spl06/spl06.c ****         case E_SPL06_PRC_TIMES32:
 134:./dev/spl06/spl06.c ****             kpkt = 516096;
  80              		.loc 1 134 13 is_stmt 1 view .LVU16
 135:./dev/spl06/spl06.c ****             break;
  81              		.loc 1 135 13 view .LVU17
 134:./dev/spl06/spl06.c ****             break;
  82              		.loc 1 134 18 is_stmt 0 view .LVU18
  83 002a 4FF4FC20 		mov	r0, #516096
  84              		.loc 1 135 13 view .LVU19
  85 002e 7047     		bx	lr
  86              	.LVL6:
  87              	.L5:
 136:./dev/spl06/spl06.c ****         case E_SPL06_PRC_TIMES64:
 137:./dev/spl06/spl06.c ****             kpkt = 1040384;
  88              		.loc 1 137 13 is_stmt 1 view .LVU20
ARM GAS  /tmp/ccBYxQkD.s 			page 5


 138:./dev/spl06/spl06.c ****             break;
  89              		.loc 1 138 13 view .LVU21
 137:./dev/spl06/spl06.c ****             break;
  90              		.loc 1 137 18 is_stmt 0 view .LVU22
  91 0030 4FF47E20 		mov	r0, #1040384
  92              		.loc 1 138 13 view .LVU23
  93 0034 7047     		bx	lr
  94              	.LVL7:
  95              	.L3:
 139:./dev/spl06/spl06.c ****         case E_SPL06_PRC_TIMES128:
 140:./dev/spl06/spl06.c ****             kpkt = 2088960;
  96              		.loc 1 140 13 is_stmt 1 view .LVU24
 141:./dev/spl06/spl06.c ****             break;
  97              		.loc 1 141 13 view .LVU25
 140:./dev/spl06/spl06.c ****             break;
  98              		.loc 1 140 18 is_stmt 0 view .LVU26
  99 0036 4FF4FF10 		mov	r0, #2088960
 100              		.loc 1 141 13 view .LVU27
 101 003a 7047     		bx	lr
 102              	.LVL8:
 103              	.L11:
 122:./dev/spl06/spl06.c ****             break;
 104              		.loc 1 122 18 view .LVU28
 105 003c 4FF4C010 		mov	r0, #1572864
 106              	.LVL9:
 142:./dev/spl06/spl06.c ****         default:
 143:./dev/spl06/spl06.c ****             kpkt = 524288;
 144:./dev/spl06/spl06.c ****             break;
 145:./dev/spl06/spl06.c ****     }
 146:./dev/spl06/spl06.c **** 
 147:./dev/spl06/spl06.c **** 	return kpkt;
 107              		.loc 1 147 2 is_stmt 1 view .LVU29
 148:./dev/spl06/spl06.c **** 	
 149:./dev/spl06/spl06.c **** }
 108              		.loc 1 149 1 is_stmt 0 view .LVU30
 109 0040 7047     		bx	lr
 110              		.cfi_endproc
 111              	.LFE129:
 113              		.section	.text.SPL06_GetCalibParams,"ax",%progbits
 114              		.align	1
 115              		.global	SPL06_GetCalibParams
 116              		.syntax unified
 117              		.thumb
 118              		.thumb_func
 119              		.fpu fpv4-sp-d16
 121              	SPL06_GetCalibParams:
 122              	.LVL10:
 123              	.LFB126:
  10:./dev/spl06/spl06.c **** 
 124              		.loc 1 10 1 is_stmt 1 view -0
 125              		.cfi_startproc
 126              		@ args = 0, pretend = 0, frame = 24
 127              		@ frame_needed = 0, uses_anonymous_args = 0
  10:./dev/spl06/spl06.c **** 
 128              		.loc 1 10 1 is_stmt 0 view .LVU32
 129 0000 30B5     		push	{r4, r5, lr}
 130              	.LCFI0:
ARM GAS  /tmp/ccBYxQkD.s 			page 6


 131              		.cfi_def_cfa_offset 12
 132              		.cfi_offset 4, -12
 133              		.cfi_offset 5, -8
 134              		.cfi_offset 14, -4
 135 0002 87B0     		sub	sp, sp, #28
 136              	.LCFI1:
 137              		.cfi_def_cfa_offset 40
  12:./dev/spl06/spl06.c **** 
 138              		.loc 1 12 2 is_stmt 1 view .LVU33
  12:./dev/spl06/spl06.c **** 
 139              		.loc 1 12 10 is_stmt 0 view .LVU34
 140 0004 0023     		movs	r3, #0
 141 0006 0193     		str	r3, [sp, #4]
 142 0008 0293     		str	r3, [sp, #8]
 143 000a 0393     		str	r3, [sp, #12]
 144 000c 0493     		str	r3, [sp, #16]
 145 000e ADF81430 		strh	r3, [sp, #20]	@ movhi
  14:./dev/spl06/spl06.c **** 		&& (NULL == spl06->I2CReadReg)
 146              		.loc 1 14 2 is_stmt 1 view .LVU35
  14:./dev/spl06/spl06.c **** 		&& (NULL == spl06->I2CReadReg)
 147              		.loc 1 14 4 is_stmt 0 view .LVU36
 148 0012 0446     		mov	r4, r0
 149 0014 0028     		cmp	r0, #0
 150 0016 00F09380 		beq	.L24
 151              	.L13:
  22:./dev/spl06/spl06.c **** 
 152              		.loc 1 22 2 is_stmt 1 view .LVU37
 153 001a 1223     		movs	r3, #18
 154 001c 01AA     		add	r2, sp, #4
 155 001e 1021     		movs	r1, #16
 156 0020 2078     		ldrb	r0, [r4]	@ zero_extendqisi2
 157              	.LVL11:
  22:./dev/spl06/spl06.c **** 
 158              		.loc 1 22 2 is_stmt 0 view .LVU38
 159 0022 E568     		ldr	r5, [r4, #12]
 160 0024 A847     		blx	r5
 161              	.LVL12:
  26:./dev/spl06/spl06.c **** 	spl06->CalibParams.c0 = (spl06->CalibParams.c0&0x0800)?(0xF000|spl06->CalibParams.c0):spl06->Calib
 162              		.loc 1 26 2 is_stmt 1 view .LVU39
  26:./dev/spl06/spl06.c **** 	spl06->CalibParams.c0 = (spl06->CalibParams.c0&0x0800)?(0xF000|spl06->CalibParams.c0):spl06->Calib
 163              		.loc 1 26 40 is_stmt 0 view .LVU40
 164 0026 9DF80410 		ldrb	r1, [sp, #4]	@ zero_extendqisi2
  26:./dev/spl06/spl06.c **** 	spl06->CalibParams.c0 = (spl06->CalibParams.c0&0x0800)?(0xF000|spl06->CalibParams.c0):spl06->Calib
 165              		.loc 1 26 57 view .LVU41
 166 002a 9DF80530 		ldrb	r3, [sp, #5]	@ zero_extendqisi2
  26:./dev/spl06/spl06.c **** 	spl06->CalibParams.c0 = (spl06->CalibParams.c0&0x0800)?(0xF000|spl06->CalibParams.c0):spl06->Calib
 167              		.loc 1 26 50 view .LVU42
 168 002e 1A09     		lsrs	r2, r3, #4
 169 0030 42EA0112 		orr	r2, r2, r1, lsl #4
  26:./dev/spl06/spl06.c **** 	spl06->CalibParams.c0 = (spl06->CalibParams.c0&0x0800)?(0xF000|spl06->CalibParams.c0):spl06->Calib
 170              		.loc 1 26 24 view .LVU43
 171 0034 2282     		strh	r2, [r4, #16]	@ movhi
  27:./dev/spl06/spl06.c **** 	
 172              		.loc 1 27 2 is_stmt 1 view .LVU44
  27:./dev/spl06/spl06.c **** 	
 173              		.loc 1 27 24 is_stmt 0 view .LVU45
 174 0036 12F4006F 		tst	r2, #2048
ARM GAS  /tmp/ccBYxQkD.s 			page 7


 175 003a 03D0     		beq	.L15
  27:./dev/spl06/spl06.c **** 	
 176              		.loc 1 27 24 discriminator 1 view .LVU46
 177 003c 6FEA0252 		mvn	r2, r2, lsl #20
 178 0040 6FEA1252 		mvn	r2, r2, lsr #20
 179              	.L15:
  27:./dev/spl06/spl06.c **** 	
 180              		.loc 1 27 24 discriminator 4 view .LVU47
 181 0044 2282     		strh	r2, [r4, #16]	@ movhi
  30:./dev/spl06/spl06.c ****     spl06->CalibParams.c1 = (spl06->CalibParams.c1 & 0x0800)?(0xF000|spl06->CalibParams.c1):spl06->
 182              		.loc 1 30 2 is_stmt 1 discriminator 4 view .LVU48
  30:./dev/spl06/spl06.c ****     spl06->CalibParams.c1 = (spl06->CalibParams.c1 & 0x0800)?(0xF000|spl06->CalibParams.c1):spl06->
 183              		.loc 1 30 52 is_stmt 0 discriminator 4 view .LVU49
 184 0046 1B02     		lsls	r3, r3, #8
 185 0048 03F47063 		and	r3, r3, #3840
  30:./dev/spl06/spl06.c ****     spl06->CalibParams.c1 = (spl06->CalibParams.c1 & 0x0800)?(0xF000|spl06->CalibParams.c1):spl06->
 186              		.loc 1 30 63 discriminator 4 view .LVU50
 187 004c 9DF80620 		ldrb	r2, [sp, #6]	@ zero_extendqisi2
  30:./dev/spl06/spl06.c ****     spl06->CalibParams.c1 = (spl06->CalibParams.c1 & 0x0800)?(0xF000|spl06->CalibParams.c1):spl06->
 188              		.loc 1 30 57 discriminator 4 view .LVU51
 189 0050 1343     		orrs	r3, r3, r2
  30:./dev/spl06/spl06.c ****     spl06->CalibParams.c1 = (spl06->CalibParams.c1 & 0x0800)?(0xF000|spl06->CalibParams.c1):spl06->
 190              		.loc 1 30 24 discriminator 4 view .LVU52
 191 0052 6382     		strh	r3, [r4, #18]	@ movhi
  31:./dev/spl06/spl06.c **** 	
 192              		.loc 1 31 5 is_stmt 1 discriminator 4 view .LVU53
  31:./dev/spl06/spl06.c **** 	
 193              		.loc 1 31 27 is_stmt 0 discriminator 4 view .LVU54
 194 0054 13F4006F 		tst	r3, #2048
 195 0058 03D0     		beq	.L16
  31:./dev/spl06/spl06.c **** 	
 196              		.loc 1 31 27 discriminator 1 view .LVU55
 197 005a 6FEA0353 		mvn	r3, r3, lsl #20
 198 005e 6FEA1353 		mvn	r3, r3, lsr #20
 199              	.L16:
  31:./dev/spl06/spl06.c **** 	
 200              		.loc 1 31 27 discriminator 4 view .LVU56
 201 0062 6382     		strh	r3, [r4, #18]	@ movhi
  34:./dev/spl06/spl06.c ****     spl06->CalibParams.c00 = (spl06->CalibParams.c00&0x080000)?(0xFFF00000|spl06->CalibParams.c00):
 202              		.loc 1 34 2 is_stmt 1 discriminator 4 view .LVU57
  34:./dev/spl06/spl06.c ****     spl06->CalibParams.c00 = (spl06->CalibParams.c00&0x080000)?(0xFFF00000|spl06->CalibParams.c00):
 203              		.loc 1 34 40 is_stmt 0 discriminator 4 view .LVU58
 204 0064 9DF80730 		ldrb	r3, [sp, #7]	@ zero_extendqisi2
  34:./dev/spl06/spl06.c ****     spl06->CalibParams.c00 = (spl06->CalibParams.c00&0x080000)?(0xFFF00000|spl06->CalibParams.c00):
 205              		.loc 1 34 63 discriminator 4 view .LVU59
 206 0068 9DF80820 		ldrb	r2, [sp, #8]	@ zero_extendqisi2
  34:./dev/spl06/spl06.c ****     spl06->CalibParams.c00 = (spl06->CalibParams.c00&0x080000)?(0xFFF00000|spl06->CalibParams.c00):
 207              		.loc 1 34 66 discriminator 4 view .LVU60
 208 006c 1201     		lsls	r2, r2, #4
  34:./dev/spl06/spl06.c ****     spl06->CalibParams.c00 = (spl06->CalibParams.c00&0x080000)?(0xFFF00000|spl06->CalibParams.c00):
 209              		.loc 1 34 48 discriminator 4 view .LVU61
 210 006e 42EA0332 		orr	r2, r2, r3, lsl #12
  34:./dev/spl06/spl06.c ****     spl06->CalibParams.c00 = (spl06->CalibParams.c00&0x080000)?(0xFFF00000|spl06->CalibParams.c00):
 211              		.loc 1 34 85 discriminator 4 view .LVU62
 212 0072 9DF80910 		ldrb	r1, [sp, #9]	@ zero_extendqisi2
  34:./dev/spl06/spl06.c ****     spl06->CalibParams.c00 = (spl06->CalibParams.c00&0x080000)?(0xFFF00000|spl06->CalibParams.c00):
 213              		.loc 1 34 70 discriminator 4 view .LVU63
ARM GAS  /tmp/ccBYxQkD.s 			page 8


 214 0076 42EA1112 		orr	r2, r2, r1, lsr #4
  34:./dev/spl06/spl06.c ****     spl06->CalibParams.c00 = (spl06->CalibParams.c00&0x080000)?(0xFFF00000|spl06->CalibParams.c00):
 215              		.loc 1 34 25 discriminator 4 view .LVU64
 216 007a 6261     		str	r2, [r4, #20]
  35:./dev/spl06/spl06.c **** 
 217              		.loc 1 35 5 is_stmt 1 discriminator 4 view .LVU65
  35:./dev/spl06/spl06.c **** 
 218              		.loc 1 35 99 is_stmt 0 discriminator 4 view .LVU66
 219 007c 12F4002F 		tst	r2, #524288
 220 0080 03D0     		beq	.L17
  35:./dev/spl06/spl06.c **** 
 221              		.loc 1 35 75 discriminator 1 view .LVU67
 222 0082 6FEA0232 		mvn	r2, r2, lsl #12
 223 0086 6FEA1232 		mvn	r2, r2, lsr #12
 224              	.L17:
  35:./dev/spl06/spl06.c **** 
 225              		.loc 1 35 28 discriminator 4 view .LVU68
 226 008a 6261     		str	r2, [r4, #20]
  39:./dev/spl06/spl06.c ****     spl06->CalibParams.c10 = (spl06->CalibParams.c10&0x080000)?(0xFFF00000|spl06->CalibParams.c10):
 227              		.loc 1 39 2 is_stmt 1 discriminator 4 view .LVU69
  39:./dev/spl06/spl06.c ****     spl06->CalibParams.c10 = (spl06->CalibParams.c10&0x080000)?(0xFFF00000|spl06->CalibParams.c10):
 228              		.loc 1 39 65 is_stmt 0 discriminator 4 view .LVU70
 229 008c 9DF80A30 		ldrb	r3, [sp, #10]	@ zero_extendqisi2
  39:./dev/spl06/spl06.c ****     spl06->CalibParams.c10 = (spl06->CalibParams.c10&0x080000)?(0xFFF00000|spl06->CalibParams.c10):
 230              		.loc 1 39 68 discriminator 4 view .LVU71
 231 0090 1B02     		lsls	r3, r3, #8
  39:./dev/spl06/spl06.c ****     spl06->CalibParams.c10 = (spl06->CalibParams.c10&0x080000)?(0xFFF00000|spl06->CalibParams.c10):
 232              		.loc 1 39 50 discriminator 4 view .LVU72
 233 0092 43EA0143 		orr	r3, r3, r1, lsl #16
  39:./dev/spl06/spl06.c ****     spl06->CalibParams.c10 = (spl06->CalibParams.c10&0x080000)?(0xFFF00000|spl06->CalibParams.c10):
 234              		.loc 1 39 78 discriminator 4 view .LVU73
 235 0096 9DF80B20 		ldrb	r2, [sp, #11]	@ zero_extendqisi2
  39:./dev/spl06/spl06.c ****     spl06->CalibParams.c10 = (spl06->CalibParams.c10&0x080000)?(0xFFF00000|spl06->CalibParams.c10):
 236              		.loc 1 39 72 discriminator 4 view .LVU74
 237 009a 1343     		orrs	r3, r3, r2
  39:./dev/spl06/spl06.c ****     spl06->CalibParams.c10 = (spl06->CalibParams.c10&0x080000)?(0xFFF00000|spl06->CalibParams.c10):
 238              		.loc 1 39 25 discriminator 4 view .LVU75
 239 009c A361     		str	r3, [r4, #24]
  40:./dev/spl06/spl06.c **** 
 240              		.loc 1 40 5 is_stmt 1 discriminator 4 view .LVU76
  40:./dev/spl06/spl06.c **** 
 241              		.loc 1 40 99 is_stmt 0 discriminator 4 view .LVU77
 242 009e 13F4002F 		tst	r3, #524288
 243 00a2 03D0     		beq	.L18
  40:./dev/spl06/spl06.c **** 
 244              		.loc 1 40 75 discriminator 1 view .LVU78
 245 00a4 6FEA0333 		mvn	r3, r3, lsl #12
 246 00a8 6FEA1333 		mvn	r3, r3, lsr #12
 247              	.L18:
  40:./dev/spl06/spl06.c **** 
 248              		.loc 1 40 28 discriminator 4 view .LVU79
 249 00ac A361     		str	r3, [r4, #24]
  43:./dev/spl06/spl06.c ****     
 250              		.loc 1 43 2 is_stmt 1 discriminator 4 view .LVU80
  43:./dev/spl06/spl06.c ****     
 251              		.loc 1 43 40 is_stmt 0 discriminator 4 view .LVU81
 252 00ae 9DF80C20 		ldrb	r2, [sp, #12]	@ zero_extendqisi2
ARM GAS  /tmp/ccBYxQkD.s 			page 9


  43:./dev/spl06/spl06.c ****     
 253              		.loc 1 43 55 discriminator 4 view .LVU82
 254 00b2 9DF80D30 		ldrb	r3, [sp, #13]	@ zero_extendqisi2
  43:./dev/spl06/spl06.c ****     
 255              		.loc 1 43 49 discriminator 4 view .LVU83
 256 00b6 43EA0223 		orr	r3, r3, r2, lsl #8
  43:./dev/spl06/spl06.c ****     
 257              		.loc 1 43 25 discriminator 4 view .LVU84
 258 00ba A383     		strh	r3, [r4, #28]	@ movhi
  45:./dev/spl06/spl06.c **** 	spl06->CalibParams.c11 = (spl06->CalibParams.c11 & 0x0800) ? (0xF000 | spl06->CalibParams.c11) : s
 259              		.loc 1 45 5 is_stmt 1 discriminator 4 view .LVU85
  45:./dev/spl06/spl06.c **** 	spl06->CalibParams.c11 = (spl06->CalibParams.c11 & 0x0800) ? (0xF000 | spl06->CalibParams.c11) : s
 260              		.loc 1 45 43 is_stmt 0 discriminator 4 view .LVU86
 261 00bc 9DF80E20 		ldrb	r2, [sp, #14]	@ zero_extendqisi2
  45:./dev/spl06/spl06.c **** 	spl06->CalibParams.c11 = (spl06->CalibParams.c11 & 0x0800) ? (0xF000 | spl06->CalibParams.c11) : s
 262              		.loc 1 45 59 discriminator 4 view .LVU87
 263 00c0 9DF80F30 		ldrb	r3, [sp, #15]	@ zero_extendqisi2
  45:./dev/spl06/spl06.c **** 	spl06->CalibParams.c11 = (spl06->CalibParams.c11 & 0x0800) ? (0xF000 | spl06->CalibParams.c11) : s
 264              		.loc 1 45 53 discriminator 4 view .LVU88
 265 00c4 43EA0223 		orr	r3, r3, r2, lsl #8
 266 00c8 1BB2     		sxth	r3, r3
  45:./dev/spl06/spl06.c **** 	spl06->CalibParams.c11 = (spl06->CalibParams.c11 & 0x0800) ? (0xF000 | spl06->CalibParams.c11) : s
 267              		.loc 1 45 28 discriminator 4 view .LVU89
 268 00ca E383     		strh	r3, [r4, #30]	@ movhi
  46:./dev/spl06/spl06.c **** 
 269              		.loc 1 46 2 is_stmt 1 discriminator 4 view .LVU90
  46:./dev/spl06/spl06.c **** 
 270              		.loc 1 46 25 is_stmt 0 discriminator 4 view .LVU91
 271 00cc 13F4006F 		tst	r3, #2048
 272 00d0 03D0     		beq	.L19
  46:./dev/spl06/spl06.c **** 
 273              		.loc 1 46 25 discriminator 1 view .LVU92
 274 00d2 6FEA0353 		mvn	r3, r3, lsl #20
 275 00d6 6FEA1353 		mvn	r3, r3, lsr #20
 276              	.L19:
  46:./dev/spl06/spl06.c **** 
 277              		.loc 1 46 25 discriminator 4 view .LVU93
 278 00da E383     		strh	r3, [r4, #30]	@ movhi
  48:./dev/spl06/spl06.c **** 	spl06->CalibParams.c20 = (spl06->CalibParams.c20&0x0800) ? (0xF000|spl06->CalibParams.c20):spl06->
 279              		.loc 1 48 5 is_stmt 1 discriminator 4 view .LVU94
  48:./dev/spl06/spl06.c **** 	spl06->CalibParams.c20 = (spl06->CalibParams.c20&0x0800) ? (0xF000|spl06->CalibParams.c20):spl06->
 280              		.loc 1 48 43 is_stmt 0 discriminator 4 view .LVU95
 281 00dc 9DF81020 		ldrb	r2, [sp, #16]	@ zero_extendqisi2
  48:./dev/spl06/spl06.c **** 	spl06->CalibParams.c20 = (spl06->CalibParams.c20&0x0800) ? (0xF000|spl06->CalibParams.c20):spl06->
 282              		.loc 1 48 59 discriminator 4 view .LVU96
 283 00e0 9DF81130 		ldrb	r3, [sp, #17]	@ zero_extendqisi2
  48:./dev/spl06/spl06.c **** 	spl06->CalibParams.c20 = (spl06->CalibParams.c20&0x0800) ? (0xF000|spl06->CalibParams.c20):spl06->
 284              		.loc 1 48 53 discriminator 4 view .LVU97
 285 00e4 43EA0223 		orr	r3, r3, r2, lsl #8
 286 00e8 1BB2     		sxth	r3, r3
  48:./dev/spl06/spl06.c **** 	spl06->CalibParams.c20 = (spl06->CalibParams.c20&0x0800) ? (0xF000|spl06->CalibParams.c20):spl06->
 287              		.loc 1 48 28 discriminator 4 view .LVU98
 288 00ea 2384     		strh	r3, [r4, #32]	@ movhi
  49:./dev/spl06/spl06.c ****     
 289              		.loc 1 49 2 is_stmt 1 discriminator 4 view .LVU99
  49:./dev/spl06/spl06.c ****     
 290              		.loc 1 49 25 is_stmt 0 discriminator 4 view .LVU100
ARM GAS  /tmp/ccBYxQkD.s 			page 10


 291 00ec 13F4006F 		tst	r3, #2048
 292 00f0 03D0     		beq	.L20
  49:./dev/spl06/spl06.c ****     
 293              		.loc 1 49 25 discriminator 1 view .LVU101
 294 00f2 6FEA0353 		mvn	r3, r3, lsl #20
 295 00f6 6FEA1353 		mvn	r3, r3, lsr #20
 296              	.L20:
  49:./dev/spl06/spl06.c ****     
 297              		.loc 1 49 25 discriminator 4 view .LVU102
 298 00fa 2384     		strh	r3, [r4, #32]	@ movhi
  51:./dev/spl06/spl06.c **** 	spl06->CalibParams.c21 = (spl06->CalibParams.c21&0x0800)?(0xF000|spl06->CalibParams.c21):spl06->Ca
 299              		.loc 1 51 2 is_stmt 1 discriminator 4 view .LVU103
  51:./dev/spl06/spl06.c **** 	spl06->CalibParams.c21 = (spl06->CalibParams.c21&0x0800)?(0xF000|spl06->CalibParams.c21):spl06->Ca
 300              		.loc 1 51 40 is_stmt 0 discriminator 4 view .LVU104
 301 00fc 9DF81220 		ldrb	r2, [sp, #18]	@ zero_extendqisi2
  51:./dev/spl06/spl06.c **** 	spl06->CalibParams.c21 = (spl06->CalibParams.c21&0x0800)?(0xF000|spl06->CalibParams.c21):spl06->Ca
 302              		.loc 1 51 56 discriminator 4 view .LVU105
 303 0100 9DF81330 		ldrb	r3, [sp, #19]	@ zero_extendqisi2
  51:./dev/spl06/spl06.c **** 	spl06->CalibParams.c21 = (spl06->CalibParams.c21&0x0800)?(0xF000|spl06->CalibParams.c21):spl06->Ca
 304              		.loc 1 51 50 discriminator 4 view .LVU106
 305 0104 43EA0223 		orr	r3, r3, r2, lsl #8
 306 0108 1BB2     		sxth	r3, r3
  51:./dev/spl06/spl06.c **** 	spl06->CalibParams.c21 = (spl06->CalibParams.c21&0x0800)?(0xF000|spl06->CalibParams.c21):spl06->Ca
 307              		.loc 1 51 25 discriminator 4 view .LVU107
 308 010a 6384     		strh	r3, [r4, #34]	@ movhi
  52:./dev/spl06/spl06.c **** 
 309              		.loc 1 52 2 is_stmt 1 discriminator 4 view .LVU108
  52:./dev/spl06/spl06.c **** 
 310              		.loc 1 52 25 is_stmt 0 discriminator 4 view .LVU109
 311 010c 13F4006F 		tst	r3, #2048
 312 0110 03D0     		beq	.L21
  52:./dev/spl06/spl06.c **** 
 313              		.loc 1 52 25 discriminator 1 view .LVU110
 314 0112 6FEA0353 		mvn	r3, r3, lsl #20
 315 0116 6FEA1353 		mvn	r3, r3, lsr #20
 316              	.L21:
  52:./dev/spl06/spl06.c **** 
 317              		.loc 1 52 25 discriminator 4 view .LVU111
 318 011a 6384     		strh	r3, [r4, #34]	@ movhi
  54:./dev/spl06/spl06.c **** 	spl06->CalibParams.c30 = (spl06->CalibParams.c30&0x0800)?(0xF000|spl06->CalibParams.c30):spl06->Ca
 319              		.loc 1 54 5 is_stmt 1 discriminator 4 view .LVU112
  54:./dev/spl06/spl06.c **** 	spl06->CalibParams.c30 = (spl06->CalibParams.c30&0x0800)?(0xF000|spl06->CalibParams.c30):spl06->Ca
 320              		.loc 1 54 43 is_stmt 0 discriminator 4 view .LVU113
 321 011c 9DF81420 		ldrb	r2, [sp, #20]	@ zero_extendqisi2
  54:./dev/spl06/spl06.c **** 	spl06->CalibParams.c30 = (spl06->CalibParams.c30&0x0800)?(0xF000|spl06->CalibParams.c30):spl06->Ca
 322              		.loc 1 54 59 discriminator 4 view .LVU114
 323 0120 9DF81530 		ldrb	r3, [sp, #21]	@ zero_extendqisi2
  54:./dev/spl06/spl06.c **** 	spl06->CalibParams.c30 = (spl06->CalibParams.c30&0x0800)?(0xF000|spl06->CalibParams.c30):spl06->Ca
 324              		.loc 1 54 53 discriminator 4 view .LVU115
 325 0124 43EA0223 		orr	r3, r3, r2, lsl #8
 326 0128 1BB2     		sxth	r3, r3
  54:./dev/spl06/spl06.c **** 	spl06->CalibParams.c30 = (spl06->CalibParams.c30&0x0800)?(0xF000|spl06->CalibParams.c30):spl06->Ca
 327              		.loc 1 54 28 discriminator 4 view .LVU116
 328 012a A384     		strh	r3, [r4, #36]	@ movhi
  55:./dev/spl06/spl06.c **** 
 329              		.loc 1 55 2 is_stmt 1 discriminator 4 view .LVU117
  55:./dev/spl06/spl06.c **** 
ARM GAS  /tmp/ccBYxQkD.s 			page 11


 330              		.loc 1 55 25 is_stmt 0 discriminator 4 view .LVU118
 331 012c 13F4006F 		tst	r3, #2048
 332 0130 03D0     		beq	.L22
  55:./dev/spl06/spl06.c **** 
 333              		.loc 1 55 25 discriminator 1 view .LVU119
 334 0132 6FEA0353 		mvn	r3, r3, lsl #20
 335 0136 6FEA1353 		mvn	r3, r3, lsr #20
 336              	.L22:
  55:./dev/spl06/spl06.c **** 
 337              		.loc 1 55 25 discriminator 4 view .LVU120
 338 013a A384     		strh	r3, [r4, #36]	@ movhi
 339              	.L12:
  58:./dev/spl06/spl06.c **** 
 340              		.loc 1 58 1 view .LVU121
 341 013c 07B0     		add	sp, sp, #28
 342              	.LCFI2:
 343              		.cfi_remember_state
 344              		.cfi_def_cfa_offset 12
 345              		@ sp needed
 346 013e 30BD     		pop	{r4, r5, pc}
 347              	.LVL13:
 348              	.L24:
 349              	.LCFI3:
 350              		.cfi_restore_state
  15:./dev/spl06/spl06.c **** 	)
 351              		.loc 1 15 20 view .LVU122
 352 0140 C368     		ldr	r3, [r0, #12]
  15:./dev/spl06/spl06.c **** 	)
 353              		.loc 1 15 3 view .LVU123
 354 0142 002B     		cmp	r3, #0
 355 0144 7FF469AF 		bne	.L13
 356 0148 F8E7     		b	.L12
 357              		.cfi_endproc
 358              	.LFE126:
 360              		.section	.text.SPL06_SetPressureRate,"ax",%progbits
 361              		.align	1
 362              		.global	SPL06_SetPressureRate
 363              		.syntax unified
 364              		.thumb
 365              		.thumb_func
 366              		.fpu fpv4-sp-d16
 368              	SPL06_SetPressureRate:
 369              	.LVL14:
 370              	.LFB130:
 150:./dev/spl06/spl06.c **** 
 151:./dev/spl06/spl06.c **** 
 152:./dev/spl06/spl06.c **** void SPL06_SetPressureRate(SPL06_t * spl06, E_SPL06_RATE rate, E_SPL06_PRC prc)
 153:./dev/spl06/spl06.c **** {
 371              		.loc 1 153 1 is_stmt 1 view -0
 372              		.cfi_startproc
 373              		@ args = 0, pretend = 0, frame = 8
 374              		@ frame_needed = 0, uses_anonymous_args = 0
 375              		.loc 1 153 1 is_stmt 0 view .LVU125
 376 0000 70B5     		push	{r4, r5, r6, lr}
 377              	.LCFI4:
 378              		.cfi_def_cfa_offset 16
 379              		.cfi_offset 4, -16
ARM GAS  /tmp/ccBYxQkD.s 			page 12


 380              		.cfi_offset 5, -12
 381              		.cfi_offset 6, -8
 382              		.cfi_offset 14, -4
 383 0002 82B0     		sub	sp, sp, #8
 384              	.LCFI5:
 385              		.cfi_def_cfa_offset 24
 386 0004 0446     		mov	r4, r0
 387 0006 0E46     		mov	r6, r1
 388 0008 1546     		mov	r5, r2
 154:./dev/spl06/spl06.c **** 
 155:./dev/spl06/spl06.c **** 	uint8_t writeData = 0;
 389              		.loc 1 155 2 is_stmt 1 view .LVU126
 390              		.loc 1 155 10 is_stmt 0 view .LVU127
 391 000a 0023     		movs	r3, #0
 392 000c 8DF80730 		strb	r3, [sp, #7]
 156:./dev/spl06/spl06.c **** 	uint8_t readData = 0;
 393              		.loc 1 156 2 is_stmt 1 view .LVU128
 394              		.loc 1 156 10 is_stmt 0 view .LVU129
 395 0010 8DF80630 		strb	r3, [sp, #6]
 157:./dev/spl06/spl06.c **** 
 158:./dev/spl06/spl06.c **** 
 159:./dev/spl06/spl06.c **** 	spl06->KP = SPL06_GetKPKT(prc);
 396              		.loc 1 159 2 is_stmt 1 view .LVU130
 397              		.loc 1 159 14 is_stmt 0 view .LVU131
 398 0014 1046     		mov	r0, r2
 399              	.LVL15:
 400              		.loc 1 159 14 view .LVU132
 401 0016 FFF7FEFF 		bl	SPL06_GetKPKT
 402              	.LVL16:
 403              		.loc 1 159 12 view .LVU133
 404 001a 2063     		str	r0, [r4, #48]
 160:./dev/spl06/spl06.c **** 	writeData = (rate << 4) | prc;
 405              		.loc 1 160 2 is_stmt 1 view .LVU134
 406              		.loc 1 160 26 is_stmt 0 view .LVU135
 407 001c 45EA0616 		orr	r6, r5, r6, lsl #4
 408              		.loc 1 160 12 view .LVU136
 409 0020 8DF80760 		strb	r6, [sp, #7]
 161:./dev/spl06/spl06.c **** 	spl06->I2CWriteReg(spl06->DevAddr, 0x06, &writeData, 1);
 410              		.loc 1 161 2 is_stmt 1 view .LVU137
 411              		.loc 1 161 7 is_stmt 0 view .LVU138
 412 0024 A668     		ldr	r6, [r4, #8]
 413              		.loc 1 161 2 view .LVU139
 414 0026 0123     		movs	r3, #1
 415 0028 0DF10702 		add	r2, sp, #7
 416 002c 0621     		movs	r1, #6
 417 002e 2078     		ldrb	r0, [r4]	@ zero_extendqisi2
 418 0030 B047     		blx	r6
 419              	.LVL17:
 162:./dev/spl06/spl06.c **** 
 163:./dev/spl06/spl06.c ****     if(prc > E_SPL06_PRC_TIMES8)
 420              		.loc 1 163 5 is_stmt 1 view .LVU140
 421              		.loc 1 163 7 is_stmt 0 view .LVU141
 422 0032 032D     		cmp	r5, #3
 423 0034 13D9     		bls	.L25
 164:./dev/spl06/spl06.c ****     {
 165:./dev/spl06/spl06.c **** 		spl06->I2CReadReg(spl06->DevAddr, 0x09, &readData, 1);	
 424              		.loc 1 165 3 is_stmt 1 view .LVU142
ARM GAS  /tmp/ccBYxQkD.s 			page 13


 425              		.loc 1 165 8 is_stmt 0 view .LVU143
 426 0036 E568     		ldr	r5, [r4, #12]
 427              		.loc 1 165 3 view .LVU144
 428 0038 0123     		movs	r3, #1
 429 003a 0DF10602 		add	r2, sp, #6
 430 003e 0921     		movs	r1, #9
 431 0040 2078     		ldrb	r0, [r4]	@ zero_extendqisi2
 432 0042 A847     		blx	r5
 433              	.LVL18:
 166:./dev/spl06/spl06.c **** 		writeData = readData | 0x04;
 434              		.loc 1 166 3 is_stmt 1 view .LVU145
 435              		.loc 1 166 13 is_stmt 0 view .LVU146
 436 0044 9DF80630 		ldrb	r3, [sp, #6]	@ zero_extendqisi2
 437 0048 43F00403 		orr	r3, r3, #4
 438 004c 8DF80730 		strb	r3, [sp, #7]
 167:./dev/spl06/spl06.c **** 		spl06->I2CWriteReg(spl06->DevAddr, 0x09, &writeData, 1);
 439              		.loc 1 167 3 is_stmt 1 view .LVU147
 440              		.loc 1 167 8 is_stmt 0 view .LVU148
 441 0050 A568     		ldr	r5, [r4, #8]
 442              		.loc 1 167 3 view .LVU149
 443 0052 0123     		movs	r3, #1
 444 0054 0DF10702 		add	r2, sp, #7
 445 0058 0921     		movs	r1, #9
 446 005a 2078     		ldrb	r0, [r4]	@ zero_extendqisi2
 447 005c A847     		blx	r5
 448              	.LVL19:
 449              	.L25:
 168:./dev/spl06/spl06.c ****     }
 169:./dev/spl06/spl06.c **** 
 170:./dev/spl06/spl06.c **** 
 171:./dev/spl06/spl06.c **** }
 450              		.loc 1 171 1 view .LVU150
 451 005e 02B0     		add	sp, sp, #8
 452              	.LCFI6:
 453              		.cfi_def_cfa_offset 16
 454              		@ sp needed
 455 0060 70BD     		pop	{r4, r5, r6, pc}
 456              		.loc 1 171 1 view .LVU151
 457              		.cfi_endproc
 458              	.LFE130:
 460              		.section	.text.SPL06_SetTemperatureRate,"ax",%progbits
 461              		.align	1
 462              		.global	SPL06_SetTemperatureRate
 463              		.syntax unified
 464              		.thumb
 465              		.thumb_func
 466              		.fpu fpv4-sp-d16
 468              	SPL06_SetTemperatureRate:
 469              	.LVL20:
 470              	.LFB131:
 172:./dev/spl06/spl06.c **** 
 173:./dev/spl06/spl06.c **** 
 174:./dev/spl06/spl06.c **** void SPL06_SetTemperatureRate(SPL06_t * spl06, E_SPL06_RATE rate, E_SPL06_PRC prc)
 175:./dev/spl06/spl06.c **** {
 471              		.loc 1 175 1 is_stmt 1 view -0
 472              		.cfi_startproc
 473              		@ args = 0, pretend = 0, frame = 8
ARM GAS  /tmp/ccBYxQkD.s 			page 14


 474              		@ frame_needed = 0, uses_anonymous_args = 0
 475              		.loc 1 175 1 is_stmt 0 view .LVU153
 476 0000 70B5     		push	{r4, r5, r6, lr}
 477              	.LCFI7:
 478              		.cfi_def_cfa_offset 16
 479              		.cfi_offset 4, -16
 480              		.cfi_offset 5, -12
 481              		.cfi_offset 6, -8
 482              		.cfi_offset 14, -4
 483 0002 82B0     		sub	sp, sp, #8
 484              	.LCFI8:
 485              		.cfi_def_cfa_offset 24
 486 0004 0446     		mov	r4, r0
 487 0006 0E46     		mov	r6, r1
 488 0008 1546     		mov	r5, r2
 176:./dev/spl06/spl06.c **** 
 177:./dev/spl06/spl06.c **** 	uint8_t writeData = 0;
 489              		.loc 1 177 2 is_stmt 1 view .LVU154
 490              		.loc 1 177 10 is_stmt 0 view .LVU155
 491 000a 0023     		movs	r3, #0
 492 000c 8DF80730 		strb	r3, [sp, #7]
 178:./dev/spl06/spl06.c **** 	uint8_t readData = 0;
 493              		.loc 1 178 2 is_stmt 1 view .LVU156
 494              		.loc 1 178 10 is_stmt 0 view .LVU157
 495 0010 8DF80630 		strb	r3, [sp, #6]
 179:./dev/spl06/spl06.c **** 
 180:./dev/spl06/spl06.c **** 
 181:./dev/spl06/spl06.c **** 	spl06->KT = SPL06_GetKPKT(prc);
 496              		.loc 1 181 2 is_stmt 1 view .LVU158
 497              		.loc 1 181 14 is_stmt 0 view .LVU159
 498 0014 1046     		mov	r0, r2
 499              	.LVL21:
 500              		.loc 1 181 14 view .LVU160
 501 0016 FFF7FEFF 		bl	SPL06_GetKPKT
 502              	.LVL22:
 503              		.loc 1 181 12 view .LVU161
 504 001a 6063     		str	r0, [r4, #52]
 182:./dev/spl06/spl06.c **** 	
 183:./dev/spl06/spl06.c **** 	writeData = (rate << 4) | prc;
 505              		.loc 1 183 2 is_stmt 1 view .LVU162
 506              		.loc 1 183 26 is_stmt 0 view .LVU163
 507 001c 45EA0616 		orr	r6, r5, r6, lsl #4
 508              		.loc 1 183 12 view .LVU164
 509 0020 8DF80760 		strb	r6, [sp, #7]
 184:./dev/spl06/spl06.c **** 	spl06->I2CWriteReg(spl06->DevAddr, 0x07, &writeData, 1);
 510              		.loc 1 184 2 is_stmt 1 view .LVU165
 511              		.loc 1 184 7 is_stmt 0 view .LVU166
 512 0024 A668     		ldr	r6, [r4, #8]
 513              		.loc 1 184 2 view .LVU167
 514 0026 0123     		movs	r3, #1
 515 0028 0DF10702 		add	r2, sp, #7
 516 002c 0721     		movs	r1, #7
 517 002e 2078     		ldrb	r0, [r4]	@ zero_extendqisi2
 518 0030 B047     		blx	r6
 519              	.LVL23:
 185:./dev/spl06/spl06.c ****     if(prc > E_SPL06_PRC_TIMES8)
 520              		.loc 1 185 5 is_stmt 1 view .LVU168
ARM GAS  /tmp/ccBYxQkD.s 			page 15


 521              		.loc 1 185 7 is_stmt 0 view .LVU169
 522 0032 032D     		cmp	r5, #3
 523 0034 13D9     		bls	.L28
 186:./dev/spl06/spl06.c ****     {
 187:./dev/spl06/spl06.c **** 		spl06->I2CReadReg(spl06->DevAddr, 0x09, &readData, 1);
 524              		.loc 1 187 3 is_stmt 1 view .LVU170
 525              		.loc 1 187 8 is_stmt 0 view .LVU171
 526 0036 E568     		ldr	r5, [r4, #12]
 527              		.loc 1 187 3 view .LVU172
 528 0038 0123     		movs	r3, #1
 529 003a 0DF10602 		add	r2, sp, #6
 530 003e 0921     		movs	r1, #9
 531 0040 2078     		ldrb	r0, [r4]	@ zero_extendqisi2
 532 0042 A847     		blx	r5
 533              	.LVL24:
 188:./dev/spl06/spl06.c **** 		writeData = readData | 0x08;
 534              		.loc 1 188 3 is_stmt 1 view .LVU173
 535              		.loc 1 188 13 is_stmt 0 view .LVU174
 536 0044 9DF80630 		ldrb	r3, [sp, #6]	@ zero_extendqisi2
 537 0048 43F00803 		orr	r3, r3, #8
 538 004c 8DF80730 		strb	r3, [sp, #7]
 189:./dev/spl06/spl06.c **** 		spl06->I2CWriteReg(spl06->DevAddr, 0x09, &writeData, 1);
 539              		.loc 1 189 3 is_stmt 1 view .LVU175
 540              		.loc 1 189 8 is_stmt 0 view .LVU176
 541 0050 A568     		ldr	r5, [r4, #8]
 542              		.loc 1 189 3 view .LVU177
 543 0052 0123     		movs	r3, #1
 544 0054 0DF10702 		add	r2, sp, #7
 545 0058 0921     		movs	r1, #9
 546 005a 2078     		ldrb	r0, [r4]	@ zero_extendqisi2
 547 005c A847     		blx	r5
 548              	.LVL25:
 549              	.L28:
 190:./dev/spl06/spl06.c ****     }
 191:./dev/spl06/spl06.c **** 
 192:./dev/spl06/spl06.c **** }
 550              		.loc 1 192 1 view .LVU178
 551 005e 02B0     		add	sp, sp, #8
 552              	.LCFI9:
 553              		.cfi_def_cfa_offset 16
 554              		@ sp needed
 555 0060 70BD     		pop	{r4, r5, r6, pc}
 556              		.loc 1 192 1 view .LVU179
 557              		.cfi_endproc
 558              	.LFE131:
 560              		.section	.text.SPL06_SetMode,"ax",%progbits
 561              		.align	1
 562              		.global	SPL06_SetMode
 563              		.syntax unified
 564              		.thumb
 565              		.thumb_func
 566              		.fpu fpv4-sp-d16
 568              	SPL06_SetMode:
 569              	.LVL26:
 570              	.LFB132:
 193:./dev/spl06/spl06.c **** 
 194:./dev/spl06/spl06.c **** 
ARM GAS  /tmp/ccBYxQkD.s 			page 16


 195:./dev/spl06/spl06.c **** //设置模式
 196:./dev/spl06/spl06.c **** void SPL06_SetMode(SPL06_t * spl06, E_SPL06_MODE mode)
 197:./dev/spl06/spl06.c **** {
 571              		.loc 1 197 1 is_stmt 1 view -0
 572              		.cfi_startproc
 573              		@ args = 0, pretend = 0, frame = 8
 574              		@ frame_needed = 0, uses_anonymous_args = 0
 575              		.loc 1 197 1 is_stmt 0 view .LVU181
 576 0000 10B5     		push	{r4, lr}
 577              	.LCFI10:
 578              		.cfi_def_cfa_offset 8
 579              		.cfi_offset 4, -8
 580              		.cfi_offset 14, -4
 581 0002 82B0     		sub	sp, sp, #8
 582              	.LCFI11:
 583              		.cfi_def_cfa_offset 16
 584 0004 8DF80710 		strb	r1, [sp, #7]
 198:./dev/spl06/spl06.c **** 	spl06->I2CWriteReg(spl06->DevAddr, 0x08, &mode, 1);
 585              		.loc 1 198 2 is_stmt 1 view .LVU182
 586              		.loc 1 198 7 is_stmt 0 view .LVU183
 587 0008 8468     		ldr	r4, [r0, #8]
 588              		.loc 1 198 2 view .LVU184
 589 000a 0123     		movs	r3, #1
 590 000c 0DF10702 		add	r2, sp, #7
 591 0010 0821     		movs	r1, #8
 592              	.LVL27:
 593              		.loc 1 198 2 view .LVU185
 594 0012 0078     		ldrb	r0, [r0]	@ zero_extendqisi2
 595              	.LVL28:
 596              		.loc 1 198 2 view .LVU186
 597 0014 A047     		blx	r4
 598              	.LVL29:
 199:./dev/spl06/spl06.c **** }
 599              		.loc 1 199 1 view .LVU187
 600 0016 02B0     		add	sp, sp, #8
 601              	.LCFI12:
 602              		.cfi_def_cfa_offset 8
 603              		@ sp needed
 604 0018 10BD     		pop	{r4, pc}
 605              		.cfi_endproc
 606              	.LFE132:
 608              		.section	.text.SPL06_Init,"ax",%progbits
 609              		.align	1
 610              		.global	SPL06_Init
 611              		.syntax unified
 612              		.thumb
 613              		.thumb_func
 614              		.fpu fpv4-sp-d16
 616              	SPL06_Init:
 617              	.LVL30:
 618              	.LFB128:
  71:./dev/spl06/spl06.c **** 
 619              		.loc 1 71 1 is_stmt 1 view -0
 620              		.cfi_startproc
 621              		@ args = 0, pretend = 0, frame = 8
 622              		@ frame_needed = 0, uses_anonymous_args = 0
  71:./dev/spl06/spl06.c **** 
ARM GAS  /tmp/ccBYxQkD.s 			page 17


 623              		.loc 1 71 1 is_stmt 0 view .LVU189
 624 0000 70B5     		push	{r4, r5, r6, lr}
 625              	.LCFI13:
 626              		.cfi_def_cfa_offset 16
 627              		.cfi_offset 4, -16
 628              		.cfi_offset 5, -12
 629              		.cfi_offset 6, -8
 630              		.cfi_offset 14, -4
 631 0002 82B0     		sub	sp, sp, #8
 632              	.LCFI14:
 633              		.cfi_def_cfa_offset 24
  73:./dev/spl06/spl06.c **** 	uint8_t count = 0;
 634              		.loc 1 73 2 is_stmt 1 view .LVU190
  73:./dev/spl06/spl06.c **** 	uint8_t count = 0;
 635              		.loc 1 73 10 is_stmt 0 view .LVU191
 636 0004 0023     		movs	r3, #0
 637 0006 8DF80730 		strb	r3, [sp, #7]
  74:./dev/spl06/spl06.c **** 
 638              		.loc 1 74 2 is_stmt 1 view .LVU192
 639              	.LVL31:
  76:./dev/spl06/spl06.c **** 		|| (NULL == spl06->I2CWriteReg)
 640              		.loc 1 76 2 view .LVU193
  76:./dev/spl06/spl06.c **** 		|| (NULL == spl06->I2CWriteReg)
 641              		.loc 1 76 4 is_stmt 0 view .LVU194
 642 000a 38B3     		cbz	r0, .L36
 643 000c 0546     		mov	r5, r0
  77:./dev/spl06/spl06.c **** 		|| (NULL == spl06->I2CReadReg)
 644              		.loc 1 77 20 view .LVU195
 645 000e 8368     		ldr	r3, [r0, #8]
  77:./dev/spl06/spl06.c **** 		|| (NULL == spl06->I2CReadReg)
 646              		.loc 1 77 3 view .LVU196
 647 0010 33B3     		cbz	r3, .L37
  78:./dev/spl06/spl06.c **** 	)
 648              		.loc 1 78 20 view .LVU197
 649 0012 C368     		ldr	r3, [r0, #12]
  78:./dev/spl06/spl06.c **** 	)
 650              		.loc 1 78 3 view .LVU198
 651 0014 33B3     		cbz	r3, .L38
  74:./dev/spl06/spl06.c **** 
 652              		.loc 1 74 10 view .LVU199
 653 0016 0024     		movs	r4, #0
 654              	.LVL32:
 655              	.L35:
  86:./dev/spl06/spl06.c **** 	{
 656              		.loc 1 86 2 is_stmt 1 view .LVU200
  88:./dev/spl06/spl06.c **** 		spl06->I2CReadReg(spl06->DevAddr, 0x0D, &id, 1);
 657              		.loc 1 88 3 view .LVU201
 658 0018 0134     		adds	r4, r4, #1
 659              	.LVL33:
  88:./dev/spl06/spl06.c **** 		spl06->I2CReadReg(spl06->DevAddr, 0x0D, &id, 1);
 660              		.loc 1 88 3 is_stmt 0 view .LVU202
 661 001a E4B2     		uxtb	r4, r4
 662              	.LVL34:
  89:./dev/spl06/spl06.c **** 
 663              		.loc 1 89 3 is_stmt 1 view .LVU203
 664 001c 0123     		movs	r3, #1
 665 001e 0DF10702 		add	r2, sp, #7
ARM GAS  /tmp/ccBYxQkD.s 			page 18


 666 0022 0D21     		movs	r1, #13
 667 0024 2878     		ldrb	r0, [r5]	@ zero_extendqisi2
 668 0026 EE68     		ldr	r6, [r5, #12]
 669 0028 B047     		blx	r6
 670              	.LVL35:
  91:./dev/spl06/spl06.c **** 		{
 671              		.loc 1 91 3 view .LVU204
  91:./dev/spl06/spl06.c **** 		{
 672              		.loc 1 91 5 is_stmt 0 view .LVU205
 673 002a 052C     		cmp	r4, #5
 674 002c 1CD8     		bhi	.L39
  96:./dev/spl06/spl06.c **** 	
 675              		.loc 1 96 8 is_stmt 1 view .LVU206
  96:./dev/spl06/spl06.c **** 	
 676              		.loc 1 96 12 is_stmt 0 view .LVU207
 677 002e 9DF80730 		ldrb	r3, [sp, #7]	@ zero_extendqisi2
  96:./dev/spl06/spl06.c **** 	
 678              		.loc 1 96 2 view .LVU208
 679 0032 102B     		cmp	r3, #16
 680 0034 F0D1     		bne	.L35
  99:./dev/spl06/spl06.c **** 
 681              		.loc 1 99 2 is_stmt 1 view .LVU209
 682 0036 2846     		mov	r0, r5
 683 0038 FFF7FEFF 		bl	SPL06_GetCalibParams
 684              	.LVL36:
 101:./dev/spl06/spl06.c **** 
 685              		.loc 1 101 2 view .LVU210
 686 003c AA78     		ldrb	r2, [r5, #2]	@ zero_extendqisi2
 687 003e 6978     		ldrb	r1, [r5, #1]	@ zero_extendqisi2
 688 0040 2846     		mov	r0, r5
 689 0042 FFF7FEFF 		bl	SPL06_SetPressureRate
 690              	.LVL37:
 103:./dev/spl06/spl06.c **** 
 691              		.loc 1 103 2 view .LVU211
 692 0046 2A79     		ldrb	r2, [r5, #4]	@ zero_extendqisi2
 693 0048 E978     		ldrb	r1, [r5, #3]	@ zero_extendqisi2
 694 004a 2846     		mov	r0, r5
 695 004c FFF7FEFF 		bl	SPL06_SetTemperatureRate
 696              	.LVL38:
 105:./dev/spl06/spl06.c **** 
 697              		.loc 1 105 2 view .LVU212
 698 0050 6979     		ldrb	r1, [r5, #5]	@ zero_extendqisi2
 699 0052 2846     		mov	r0, r5
 700 0054 FFF7FEFF 		bl	SPL06_SetMode
 701              	.LVL39:
 108:./dev/spl06/spl06.c **** }
 702              		.loc 1 108 2 view .LVU213
 108:./dev/spl06/spl06.c **** }
 703              		.loc 1 108 9 is_stmt 0 view .LVU214
 704 0058 0020     		movs	r0, #0
 705 005a 06E0     		b	.L34
 706              	.LVL40:
 707              	.L36:
  81:./dev/spl06/spl06.c **** 	}
 708              		.loc 1 81 10 view .LVU215
 709 005c 0120     		movs	r0, #1
 710              	.LVL41:
ARM GAS  /tmp/ccBYxQkD.s 			page 19


  81:./dev/spl06/spl06.c **** 	}
 711              		.loc 1 81 10 view .LVU216
 712 005e 04E0     		b	.L34
 713              	.LVL42:
 714              	.L37:
  81:./dev/spl06/spl06.c **** 	}
 715              		.loc 1 81 10 view .LVU217
 716 0060 0120     		movs	r0, #1
 717              	.LVL43:
  81:./dev/spl06/spl06.c **** 	}
 718              		.loc 1 81 10 view .LVU218
 719 0062 02E0     		b	.L34
 720              	.LVL44:
 721              	.L38:
  81:./dev/spl06/spl06.c **** 	}
 722              		.loc 1 81 10 view .LVU219
 723 0064 0120     		movs	r0, #1
 724              	.LVL45:
  81:./dev/spl06/spl06.c **** 	}
 725              		.loc 1 81 10 view .LVU220
 726 0066 00E0     		b	.L34
 727              	.LVL46:
 728              	.L39:
  93:./dev/spl06/spl06.c **** 		}
 729              		.loc 1 93 11 view .LVU221
 730 0068 0220     		movs	r0, #2
 731              	.LVL47:
 732              	.L34:
 109:./dev/spl06/spl06.c **** 
 733              		.loc 1 109 1 view .LVU222
 734 006a 02B0     		add	sp, sp, #8
 735              	.LCFI15:
 736              		.cfi_def_cfa_offset 16
 737              		@ sp needed
 738 006c 70BD     		pop	{r4, r5, r6, pc}
 739              		.cfi_endproc
 740              	.LFE128:
 742              		.global	__aeabi_i2d
 743              		.global	__aeabi_dmul
 744              		.global	__aeabi_f2d
 745              		.global	__aeabi_dadd
 746              		.global	__aeabi_d2f
 747              		.section	.text.SPL06_GetTemperature,"ax",%progbits
 748              		.align	1
 749              		.global	SPL06_GetTemperature
 750              		.syntax unified
 751              		.thumb
 752              		.thumb_func
 753              		.fpu fpv4-sp-d16
 755              	SPL06_GetTemperature:
 756              	.LVL48:
 757              	.LFB133:
 200:./dev/spl06/spl06.c **** 
 201:./dev/spl06/spl06.c **** 
 202:./dev/spl06/spl06.c **** //获取SPL06温度
 203:./dev/spl06/spl06.c **** float SPL06_GetTemperature(SPL06_t * spl06)
 204:./dev/spl06/spl06.c **** {
ARM GAS  /tmp/ccBYxQkD.s 			page 20


 758              		.loc 1 204 1 is_stmt 1 view -0
 759              		.cfi_startproc
 760              		@ args = 0, pretend = 0, frame = 8
 761              		@ frame_needed = 0, uses_anonymous_args = 0
 762              		.loc 1 204 1 is_stmt 0 view .LVU224
 763 0000 D0B5     		push	{r4, r6, r7, lr}
 764              	.LCFI16:
 765              		.cfi_def_cfa_offset 16
 766              		.cfi_offset 4, -16
 767              		.cfi_offset 6, -12
 768              		.cfi_offset 7, -8
 769              		.cfi_offset 14, -4
 770 0002 2DED028B 		vpush.64	{d8}
 771              	.LCFI17:
 772              		.cfi_def_cfa_offset 24
 773              		.cfi_offset 80, -24
 774              		.cfi_offset 81, -20
 775 0006 82B0     		sub	sp, sp, #8
 776              	.LCFI18:
 777              		.cfi_def_cfa_offset 32
 205:./dev/spl06/spl06.c ****     float tsc;
 778              		.loc 1 205 5 is_stmt 1 view .LVU225
 206:./dev/spl06/spl06.c **** 
 207:./dev/spl06/spl06.c **** 	uint8_t data[3] = {0};
 779              		.loc 1 207 2 view .LVU226
 780              		.loc 1 207 10 is_stmt 0 view .LVU227
 781 0008 2A4B     		ldr	r3, .L48
 782 000a 1B88     		ldrh	r3, [r3]
 783 000c ADF80430 		strh	r3, [sp, #4]	@ movhi
 784 0010 0023     		movs	r3, #0
 785 0012 8DF80630 		strb	r3, [sp, #6]
 208:./dev/spl06/spl06.c **** 
 209:./dev/spl06/spl06.c **** 	if((NULL == spl06)
 786              		.loc 1 209 2 is_stmt 1 view .LVU228
 787              		.loc 1 209 4 is_stmt 0 view .LVU229
 788 0016 0446     		mov	r4, r0
 789 0018 0028     		cmp	r0, #0
 790 001a 44D0     		beq	.L47
 791              	.L42:
 210:./dev/spl06/spl06.c **** 		&& (NULL == spl06->I2CReadReg)
 211:./dev/spl06/spl06.c **** 	)
 212:./dev/spl06/spl06.c **** 	{
 213:./dev/spl06/spl06.c **** 		return 0;
 214:./dev/spl06/spl06.c **** 	}
 215:./dev/spl06/spl06.c **** 
 216:./dev/spl06/spl06.c **** 	spl06->I2CReadReg(spl06->DevAddr, 0x03, data, 3);
 792              		.loc 1 216 2 is_stmt 1 view .LVU230
 793              		.loc 1 216 7 is_stmt 0 view .LVU231
 794 001c E668     		ldr	r6, [r4, #12]
 795              		.loc 1 216 2 view .LVU232
 796 001e 0323     		movs	r3, #3
 797 0020 01AA     		add	r2, sp, #4
 798 0022 1946     		mov	r1, r3
 799 0024 2078     		ldrb	r0, [r4]	@ zero_extendqisi2
 800              	.LVL49:
 801              		.loc 1 216 2 view .LVU233
 802 0026 B047     		blx	r6
ARM GAS  /tmp/ccBYxQkD.s 			page 21


 803              	.LVL50:
 217:./dev/spl06/spl06.c ****     spl06->RawTemperature = (int32_t)data[0]<<16 | (int32_t)data[1]<<8 | (int32_t)data[2];
 804              		.loc 1 217 5 is_stmt 1 view .LVU234
 805              		.loc 1 217 42 is_stmt 0 view .LVU235
 806 0028 9DF80420 		ldrb	r2, [sp, #4]	@ zero_extendqisi2
 807              		.loc 1 217 65 view .LVU236
 808 002c 9DF80530 		ldrb	r3, [sp, #5]	@ zero_extendqisi2
 809              		.loc 1 217 68 view .LVU237
 810 0030 1B02     		lsls	r3, r3, #8
 811              		.loc 1 217 50 view .LVU238
 812 0032 43EA0243 		orr	r3, r3, r2, lsl #16
 813              		.loc 1 217 87 view .LVU239
 814 0036 9DF80620 		ldrb	r2, [sp, #6]	@ zero_extendqisi2
 815              		.loc 1 217 72 view .LVU240
 816 003a 1343     		orrs	r3, r3, r2
 817              		.loc 1 217 27 view .LVU241
 818 003c E362     		str	r3, [r4, #44]
 218:./dev/spl06/spl06.c ****     spl06->RawTemperature= (spl06->RawTemperature&0x800000) ? (0xFF000000|spl06->RawTemperature) : 
 819              		.loc 1 218 5 is_stmt 1 view .LVU242
 820              		.loc 1 218 98 is_stmt 0 view .LVU243
 821 003e 13F4000F 		tst	r3, #8388608
 822 0042 01D0     		beq	.L44
 823              		.loc 1 218 74 discriminator 1 view .LVU244
 824 0044 43F07F43 		orr	r3, r3, #-16777216
 825              	.L44:
 826              		.loc 1 218 26 discriminator 4 view .LVU245
 827 0048 E362     		str	r3, [r4, #44]
 219:./dev/spl06/spl06.c **** 
 220:./dev/spl06/spl06.c ****     tsc = spl06->RawTemperature / (float)spl06->KT;
 828              		.loc 1 220 5 is_stmt 1 discriminator 4 view .LVU246
 829              		.loc 1 220 33 is_stmt 0 discriminator 4 view .LVU247
 830 004a 07EE903A 		vmov	s15, r3	@ int
 831 004e F8EEE77A 		vcvt.f32.s32	s15, s15
 832              		.loc 1 220 35 discriminator 4 view .LVU248
 833 0052 94ED0D7A 		vldr.32	s14, [r4, #52]	@ int
 834 0056 B8EEC77A 		vcvt.f32.s32	s14, s14
 835              		.loc 1 220 9 discriminator 4 view .LVU249
 836 005a 87EE878A 		vdiv.f32	s16, s15, s14
 837              	.LVL51:
 221:./dev/spl06/spl06.c **** 	
 222:./dev/spl06/spl06.c ****     return (spl06->CalibParams.c0 * 0.5 + spl06->CalibParams.c1 * tsc);
 838              		.loc 1 222 5 is_stmt 1 discriminator 4 view .LVU250
 839              		.loc 1 222 35 is_stmt 0 discriminator 4 view .LVU251
 840 005e B4F91000 		ldrsh	r0, [r4, #16]
 841 0062 FFF7FEFF 		bl	__aeabi_i2d
 842              	.LVL52:
 843 0066 0022     		movs	r2, #0
 844 0068 134B     		ldr	r3, .L48+4
 845 006a FFF7FEFF 		bl	__aeabi_dmul
 846              	.LVL53:
 847 006e 0646     		mov	r6, r0
 848 0070 0F46     		mov	r7, r1
 849              		.loc 1 222 61 discriminator 4 view .LVU252
 850 0072 B4F91230 		ldrsh	r3, [r4, #18]
 851 0076 07EE903A 		vmov	s15, r3	@ int
 852              		.loc 1 222 65 discriminator 4 view .LVU253
 853 007a F8EEE77A 		vcvt.f32.s32	s15, s15
ARM GAS  /tmp/ccBYxQkD.s 			page 22


 854 007e 67EE887A 		vmul.f32	s15, s15, s16
 855 0082 17EE900A 		vmov	r0, s15
 856 0086 FFF7FEFF 		bl	__aeabi_f2d
 857              	.LVL54:
 858 008a 0246     		mov	r2, r0
 859 008c 0B46     		mov	r3, r1
 860              		.loc 1 222 41 discriminator 4 view .LVU254
 861 008e 3046     		mov	r0, r6
 862 0090 3946     		mov	r1, r7
 863 0092 FFF7FEFF 		bl	__aeabi_dadd
 864              	.LVL55:
 865 0096 FFF7FEFF 		bl	__aeabi_d2f
 866              	.LVL56:
 867 009a 00EE100A 		vmov	s0, r0
 868              	.LVL57:
 869              	.L41:
 223:./dev/spl06/spl06.c **** }
 870              		.loc 1 223 1 view .LVU255
 871 009e 02B0     		add	sp, sp, #8
 872              	.LCFI19:
 873              		.cfi_remember_state
 874              		.cfi_def_cfa_offset 24
 875              		@ sp needed
 876 00a0 BDEC028B 		vldm	sp!, {d8}
 877              	.LCFI20:
 878              		.cfi_restore 80
 879              		.cfi_restore 81
 880              		.cfi_def_cfa_offset 16
 881 00a4 D0BD     		pop	{r4, r6, r7, pc}
 882              	.LVL58:
 883              	.L47:
 884              	.LCFI21:
 885              		.cfi_restore_state
 210:./dev/spl06/spl06.c **** 	)
 886              		.loc 1 210 20 view .LVU256
 887 00a6 C368     		ldr	r3, [r0, #12]
 210:./dev/spl06/spl06.c **** 	)
 888              		.loc 1 210 3 view .LVU257
 889 00a8 002B     		cmp	r3, #0
 890 00aa B7D1     		bne	.L42
 213:./dev/spl06/spl06.c **** 	}
 891              		.loc 1 213 10 view .LVU258
 892 00ac 9FED030A 		vldr.32	s0, .L48+8
 893 00b0 F5E7     		b	.L41
 894              	.L49:
 895 00b2 00BF     		.align	2
 896              	.L48:
 897 00b4 00000000 		.word	.LANCHOR0
 898 00b8 0000E03F 		.word	1071644672
 899 00bc 00000000 		.word	0
 900              		.cfi_endproc
 901              	.LFE133:
 903              		.section	.text.SPL06_GetPressure,"ax",%progbits
 904              		.align	1
 905              		.global	SPL06_GetPressure
 906              		.syntax unified
 907              		.thumb
ARM GAS  /tmp/ccBYxQkD.s 			page 23


 908              		.thumb_func
 909              		.fpu fpv4-sp-d16
 911              	SPL06_GetPressure:
 912              	.LVL59:
 913              	.LFB134:
 224:./dev/spl06/spl06.c **** 
 225:./dev/spl06/spl06.c **** //获取SPL06气压值
 226:./dev/spl06/spl06.c **** float SPL06_GetPressure(SPL06_t * spl06)
 227:./dev/spl06/spl06.c **** {
 914              		.loc 1 227 1 is_stmt 1 view -0
 915              		.cfi_startproc
 916              		@ args = 0, pretend = 0, frame = 8
 917              		@ frame_needed = 0, uses_anonymous_args = 0
 918              		.loc 1 227 1 is_stmt 0 view .LVU260
 919 0000 30B5     		push	{r4, r5, lr}
 920              	.LCFI22:
 921              		.cfi_def_cfa_offset 12
 922              		.cfi_offset 4, -12
 923              		.cfi_offset 5, -8
 924              		.cfi_offset 14, -4
 925 0002 83B0     		sub	sp, sp, #12
 926              	.LCFI23:
 927              		.cfi_def_cfa_offset 24
 228:./dev/spl06/spl06.c ****     float tsc, psc;
 928              		.loc 1 228 5 is_stmt 1 view .LVU261
 229:./dev/spl06/spl06.c ****     float qua2, qua3;
 929              		.loc 1 229 5 view .LVU262
 230:./dev/spl06/spl06.c **** 
 231:./dev/spl06/spl06.c **** 	uint8_t data[3] = {0};
 930              		.loc 1 231 2 view .LVU263
 931              		.loc 1 231 10 is_stmt 0 view .LVU264
 932 0004 3E4B     		ldr	r3, .L57
 933 0006 1B88     		ldrh	r3, [r3]
 934 0008 ADF80430 		strh	r3, [sp, #4]	@ movhi
 935 000c 0023     		movs	r3, #0
 936 000e 8DF80630 		strb	r3, [sp, #6]
 232:./dev/spl06/spl06.c **** 
 233:./dev/spl06/spl06.c **** 	if((NULL == spl06)
 937              		.loc 1 233 2 is_stmt 1 view .LVU265
 938              		.loc 1 233 4 is_stmt 0 view .LVU266
 939 0012 0446     		mov	r4, r0
 940 0014 0028     		cmp	r0, #0
 941 0016 6CD0     		beq	.L56
 942              	.L51:
 234:./dev/spl06/spl06.c **** 		&& (NULL == spl06->I2CReadReg)
 235:./dev/spl06/spl06.c **** 	)
 236:./dev/spl06/spl06.c **** 	{
 237:./dev/spl06/spl06.c **** 		return 0;
 238:./dev/spl06/spl06.c **** 	}
 239:./dev/spl06/spl06.c **** 	
 240:./dev/spl06/spl06.c **** 	spl06->I2CReadReg(spl06->DevAddr, 0x00, data, 3);
 943              		.loc 1 240 2 is_stmt 1 view .LVU267
 944 0018 0323     		movs	r3, #3
 945 001a 01AA     		add	r2, sp, #4
 946 001c 0021     		movs	r1, #0
 947 001e 2078     		ldrb	r0, [r4]	@ zero_extendqisi2
 948              	.LVL60:
ARM GAS  /tmp/ccBYxQkD.s 			page 24


 949              		.loc 1 240 2 is_stmt 0 view .LVU268
 950 0020 E568     		ldr	r5, [r4, #12]
 951 0022 A847     		blx	r5
 952              	.LVL61:
 241:./dev/spl06/spl06.c ****     spl06->RawPressure = (int32_t)data[0]<<16 | (int32_t)data[1]<<8 | (int32_t)data[2];
 953              		.loc 1 241 5 is_stmt 1 view .LVU269
 954              		.loc 1 241 39 is_stmt 0 view .LVU270
 955 0024 9DF80420 		ldrb	r2, [sp, #4]	@ zero_extendqisi2
 956              		.loc 1 241 62 view .LVU271
 957 0028 9DF80530 		ldrb	r3, [sp, #5]	@ zero_extendqisi2
 958              		.loc 1 241 65 view .LVU272
 959 002c 1B02     		lsls	r3, r3, #8
 960              		.loc 1 241 47 view .LVU273
 961 002e 43EA0243 		orr	r3, r3, r2, lsl #16
 962              		.loc 1 241 84 view .LVU274
 963 0032 9DF80620 		ldrb	r2, [sp, #6]	@ zero_extendqisi2
 964              		.loc 1 241 69 view .LVU275
 965 0036 1343     		orrs	r3, r3, r2
 966              		.loc 1 241 24 view .LVU276
 967 0038 A362     		str	r3, [r4, #40]
 242:./dev/spl06/spl06.c ****     spl06->RawPressure= (spl06->RawPressure & 0x800000) ? (0xFF000000|spl06->RawPressure) : spl06->
 968              		.loc 1 242 5 is_stmt 1 view .LVU277
 969              		.loc 1 242 91 is_stmt 0 view .LVU278
 970 003a 13F4000F 		tst	r3, #8388608
 971 003e 01D0     		beq	.L53
 972              		.loc 1 242 70 discriminator 1 view .LVU279
 973 0040 43F07F43 		orr	r3, r3, #-16777216
 974              	.L53:
 975              		.loc 1 242 23 discriminator 4 view .LVU280
 976 0044 A362     		str	r3, [r4, #40]
 243:./dev/spl06/spl06.c **** 	
 244:./dev/spl06/spl06.c **** 
 245:./dev/spl06/spl06.c ****     tsc = spl06->RawTemperature / (float)spl06->KT;
 977              		.loc 1 245 5 is_stmt 1 discriminator 4 view .LVU281
 978              		.loc 1 245 33 is_stmt 0 discriminator 4 view .LVU282
 979 0046 D4ED0B7A 		vldr.32	s15, [r4, #44]	@ int
 980 004a B8EEE77A 		vcvt.f32.s32	s14, s15
 981              		.loc 1 245 35 discriminator 4 view .LVU283
 982 004e D4ED0D7A 		vldr.32	s15, [r4, #52]	@ int
 983 0052 F8EEE77A 		vcvt.f32.s32	s15, s15
 984              		.loc 1 245 9 discriminator 4 view .LVU284
 985 0056 C7EE275A 		vdiv.f32	s11, s14, s15
 986              	.LVL62:
 246:./dev/spl06/spl06.c ****     psc = spl06->RawPressure / (float)spl06->KP;
 987              		.loc 1 246 5 is_stmt 1 discriminator 4 view .LVU285
 988              		.loc 1 246 30 is_stmt 0 discriminator 4 view .LVU286
 989 005a 07EE903A 		vmov	s15, r3	@ int
 990 005e F8EEE77A 		vcvt.f32.s32	s15, s15
 991              		.loc 1 246 32 discriminator 4 view .LVU287
 992 0062 94ED0C7A 		vldr.32	s14, [r4, #48]	@ int
 993 0066 F8EEC76A 		vcvt.f32.s32	s13, s14
 994              		.loc 1 246 9 discriminator 4 view .LVU288
 995 006a 87EEA67A 		vdiv.f32	s14, s15, s13
 996              	.LVL63:
 247:./dev/spl06/spl06.c ****     qua2 = spl06->CalibParams.c10 + psc * (spl06->CalibParams.c20 + psc* spl06->CalibParams.c30);
 997              		.loc 1 247 5 is_stmt 1 discriminator 4 view .LVU289
 998              		.loc 1 247 35 is_stmt 0 discriminator 4 view .LVU290
ARM GAS  /tmp/ccBYxQkD.s 			page 25


 999 006e D4ED067A 		vldr.32	s15, [r4, #24]	@ int
 1000 0072 F8EEE76A 		vcvt.f32.s32	s13, s15
 1001              		.loc 1 247 62 discriminator 4 view .LVU291
 1002 0076 B4F92030 		ldrsh	r3, [r4, #32]
 1003 007a 07EE903A 		vmov	s15, r3	@ int
 1004              		.loc 1 247 92 discriminator 4 view .LVU292
 1005 007e B4F92430 		ldrsh	r3, [r4, #36]
 1006 0082 06EE103A 		vmov	s12, r3	@ int
 1007              		.loc 1 247 72 discriminator 4 view .LVU293
 1008 0086 B8EEC66A 		vcvt.f32.s32	s12, s12
 1009 008a 26EE076A 		vmul.f32	s12, s12, s14
 1010              		.loc 1 247 67 discriminator 4 view .LVU294
 1011 008e F8EEE77A 		vcvt.f32.s32	s15, s15
 1012 0092 77EE867A 		vadd.f32	s15, s15, s12
 1013              		.loc 1 247 41 discriminator 4 view .LVU295
 1014 0096 67EE877A 		vmul.f32	s15, s15, s14
 1015              		.loc 1 247 10 discriminator 4 view .LVU296
 1016 009a 76EEA77A 		vadd.f32	s15, s13, s15
 1017              	.LVL64:
 248:./dev/spl06/spl06.c ****     qua3 = tsc * psc * (spl06->CalibParams.c11 + psc * spl06->CalibParams.c21);
 1018              		.loc 1 248 5 is_stmt 1 discriminator 4 view .LVU297
 1019              		.loc 1 248 16 is_stmt 0 discriminator 4 view .LVU298
 1020 009e 25EE870A 		vmul.f32	s0, s11, s14
 1021              		.loc 1 248 43 discriminator 4 view .LVU299
 1022 00a2 B4F91E30 		ldrsh	r3, [r4, #30]
 1023 00a6 06EE903A 		vmov	s13, r3	@ int
 1024              		.loc 1 248 74 discriminator 4 view .LVU300
 1025 00aa B4F92230 		ldrsh	r3, [r4, #34]
 1026 00ae 06EE103A 		vmov	s12, r3	@ int
 1027              		.loc 1 248 54 discriminator 4 view .LVU301
 1028 00b2 B8EEC66A 		vcvt.f32.s32	s12, s12
 1029 00b6 26EE076A 		vmul.f32	s12, s12, s14
 1030              		.loc 1 248 48 discriminator 4 view .LVU302
 1031 00ba F8EEE66A 		vcvt.f32.s32	s13, s13
 1032 00be 76EE866A 		vadd.f32	s13, s13, s12
 1033              		.loc 1 248 10 discriminator 4 view .LVU303
 1034 00c2 60EE266A 		vmul.f32	s13, s0, s13
 1035              	.LVL65:
 249:./dev/spl06/spl06.c **** 
 250:./dev/spl06/spl06.c ****     return (spl06->CalibParams.c00 + psc * qua2 + tsc * spl06->CalibParams.c01 + qua3);
 1036              		.loc 1 250 5 is_stmt 1 discriminator 4 view .LVU304
 1037              		.loc 1 250 42 is_stmt 0 discriminator 4 view .LVU305
 1038 00c6 67EE277A 		vmul.f32	s15, s14, s15
 1039              	.LVL66:
 1040              		.loc 1 250 36 discriminator 4 view .LVU306
 1041 00ca 94ED057A 		vldr.32	s14, [r4, #20]	@ int
 1042              	.LVL67:
 1043              		.loc 1 250 36 discriminator 4 view .LVU307
 1044 00ce B8EEC70A 		vcvt.f32.s32	s0, s14
 1045 00d2 70EE277A 		vadd.f32	s15, s0, s15
 1046              		.loc 1 250 75 discriminator 4 view .LVU308
 1047 00d6 B4F91C30 		ldrsh	r3, [r4, #28]
 1048 00da 00EE103A 		vmov	s0, r3	@ int
 1049              		.loc 1 250 55 discriminator 4 view .LVU309
 1050 00de B8EEC00A 		vcvt.f32.s32	s0, s0
 1051 00e2 20EE250A 		vmul.f32	s0, s0, s11
 1052              		.loc 1 250 49 discriminator 4 view .LVU310
ARM GAS  /tmp/ccBYxQkD.s 			page 26


 1053 00e6 37EE800A 		vadd.f32	s0, s15, s0
 1054              		.loc 1 250 80 discriminator 4 view .LVU311
 1055 00ea 30EE260A 		vadd.f32	s0, s0, s13
 1056              	.LVL68:
 1057              	.L50:
 251:./dev/spl06/spl06.c **** }
 1058              		.loc 1 251 1 view .LVU312
 1059 00ee 03B0     		add	sp, sp, #12
 1060              	.LCFI24:
 1061              		.cfi_remember_state
 1062              		.cfi_def_cfa_offset 12
 1063              		@ sp needed
 1064 00f0 30BD     		pop	{r4, r5, pc}
 1065              	.LVL69:
 1066              	.L56:
 1067              	.LCFI25:
 1068              		.cfi_restore_state
 234:./dev/spl06/spl06.c **** 	)
 1069              		.loc 1 234 20 view .LVU313
 1070 00f2 C368     		ldr	r3, [r0, #12]
 234:./dev/spl06/spl06.c **** 	)
 1071              		.loc 1 234 3 view .LVU314
 1072 00f4 002B     		cmp	r3, #0
 1073 00f6 8FD1     		bne	.L51
 237:./dev/spl06/spl06.c **** 	}
 1074              		.loc 1 237 10 view .LVU315
 1075 00f8 9FED020A 		vldr.32	s0, .L57+4
 1076 00fc F7E7     		b	.L50
 1077              	.L58:
 1078 00fe 00BF     		.align	2
 1079              	.L57:
 1080 0100 00000000 		.word	.LANCHOR0
 1081 0104 00000000 		.word	0
 1082              		.cfi_endproc
 1083              	.LFE134:
 1085              		.section	.text.SPL06_GetDataAll,"ax",%progbits
 1086              		.align	1
 1087              		.global	SPL06_GetDataAll
 1088              		.syntax unified
 1089              		.thumb
 1090              		.thumb_func
 1091              		.fpu fpv4-sp-d16
 1093              	SPL06_GetDataAll:
 1094              	.LVL70:
 1095              	.LFB135:
 252:./dev/spl06/spl06.c **** 
 253:./dev/spl06/spl06.c **** 
 254:./dev/spl06/spl06.c **** //获取SPL06所有数据
 255:./dev/spl06/spl06.c **** void SPL06_GetDataAll(SPL06_t * spl06, SPL06_Data_t * data)
 256:./dev/spl06/spl06.c **** {
 1096              		.loc 1 256 1 is_stmt 1 view -0
 1097              		.cfi_startproc
 1098              		@ args = 0, pretend = 0, frame = 0
 1099              		@ frame_needed = 0, uses_anonymous_args = 0
 1100              		.loc 1 256 1 is_stmt 0 view .LVU317
 1101 0000 38B5     		push	{r3, r4, r5, lr}
 1102              	.LCFI26:
ARM GAS  /tmp/ccBYxQkD.s 			page 27


 1103              		.cfi_def_cfa_offset 16
 1104              		.cfi_offset 3, -16
 1105              		.cfi_offset 4, -12
 1106              		.cfi_offset 5, -8
 1107              		.cfi_offset 14, -4
 1108 0002 0546     		mov	r5, r0
 1109 0004 0C46     		mov	r4, r1
 257:./dev/spl06/spl06.c **** 
 258:./dev/spl06/spl06.c **** 	data->Pressure = SPL06_GetPressure(spl06);
 1110              		.loc 1 258 2 is_stmt 1 view .LVU318
 1111              		.loc 1 258 19 is_stmt 0 view .LVU319
 1112 0006 FFF7FEFF 		bl	SPL06_GetPressure
 1113              	.LVL71:
 1114              		.loc 1 258 17 view .LVU320
 1115 000a 84ED000A 		vstr.32	s0, [r4]
 259:./dev/spl06/spl06.c **** 	data->Temperature = SPL06_GetTemperature(spl06);
 1116              		.loc 1 259 2 is_stmt 1 view .LVU321
 1117              		.loc 1 259 22 is_stmt 0 view .LVU322
 1118 000e 2846     		mov	r0, r5
 1119 0010 FFF7FEFF 		bl	SPL06_GetTemperature
 1120              	.LVL72:
 1121              		.loc 1 259 20 view .LVU323
 1122 0014 84ED010A 		vstr.32	s0, [r4, #4]
 260:./dev/spl06/spl06.c **** 	
 261:./dev/spl06/spl06.c **** }
 1123              		.loc 1 261 1 view .LVU324
 1124 0018 38BD     		pop	{r3, r4, r5, pc}
 1125              		.loc 1 261 1 view .LVU325
 1126              		.cfi_endproc
 1127              	.LFE135:
 1129              		.section	.rodata
 1130              		.align	2
 1131              		.set	.LANCHOR0,. + 0
 1132              	.LC0:
 1133 0000 0000     		.ascii	"\000\000"
 1134 0002 00       		.space	1
 1135              		.text
 1136              	.Letext0:
 1137              		.file 2 "/usr/include/newlib/machine/_default_types.h"
 1138              		.file 3 "/usr/include/newlib/sys/_stdint.h"
 1139              		.file 4 "./dev/spl06/spl06.h"
ARM GAS  /tmp/ccBYxQkD.s 			page 28

